
iotest.elf:     file format elf64-littleaarch64


Disassembly of section .text.boot:

0000000000080000 <start>:
   80000:	d5384249 	mrs	x9, currentel
   80004:	927d0129 	and	x9, x9, #0x8
   80008:	b4000109 	cbz	x9, 80028 <el1_entry>
   8000c:	5800032a 	ldr	x10, 80070 <exit+0x8>
   80010:	d51c110a 	msr	hcr_el2, x10
   80014:	5800032b 	ldr	x11, 80078 <exit+0x10>
   80018:	d51c400b 	msr	spsr_el2, x11
   8001c:	1000006c 	adr	x12, 80028 <el1_entry>
   80020:	d51c402c 	msr	elr_el2, x12
   80024:	d69f03e0 	eret

0000000000080028 <el1_entry>:
   80028:	580002cd 	ldr	x13, 80080 <exit+0x18>
   8002c:	d518100d 	msr	sctlr_el1, x13
   80030:	d50041bf 	msr	spsel, #0x1
   80034:	580002ae 	ldr	x14, 80088 <exit+0x20>
   80038:	910001df 	mov	sp, x14
   8003c:	940005df 	bl	817b8 <kmain>
   80040:	d2800482 	mov	x2, #0x24                  	// #36
   80044:	d2800380 	mov	x0, #0x1c                  	// #28
   80048:	f2bfc202 	movk	x2, #0xfe10, lsl #16
   8004c:	f2bfc200 	movk	x0, #0xfe10, lsl #16
   80050:	52800023 	mov	w3, #0x1                   	// #1
   80054:	52800401 	mov	w1, #0x20                  	// #32
   80058:	72ab4003 	movk	w3, #0x5a00, lsl #16
   8005c:	b9000043 	str	w3, [x2]
   80060:	72ab4001 	movk	w1, #0x5a00, lsl #16
   80064:	b9000001 	str	w1, [x0]

0000000000080068 <exit>:
   80068:	d503207f 	wfi
   8006c:	17ffffff 	b	80068 <exit>
   80070:	80000000 	.word	0x80000000
   80074:	00000000 	.word	0x00000000
   80078:	000002c5 	.word	0x000002c5
   8007c:	00000000 	.word	0x00000000
   80080:	30d50a00 	.word	0x30d50a00
   80084:	00000000 	.word	0x00000000
   80088:	00092f30 	.word	0x00092f30
   8008c:	00000000 	.word	0x00000000

Disassembly of section .text.evt:

0000000000080800 <exception_vector>:
   80800:	140001e1 	b	80f84 <curr_el_sp0_sync>
   80804:	d503201f 	nop
   80808:	d503201f 	nop
   8080c:	d503201f 	nop
   80810:	d503201f 	nop
   80814:	d503201f 	nop
   80818:	d503201f 	nop
   8081c:	d503201f 	nop
   80820:	d503201f 	nop
   80824:	d503201f 	nop
   80828:	d503201f 	nop
   8082c:	d503201f 	nop
   80830:	d503201f 	nop
   80834:	d503201f 	nop
   80838:	d503201f 	nop
   8083c:	d503201f 	nop
   80840:	d503201f 	nop
   80844:	d503201f 	nop
   80848:	d503201f 	nop
   8084c:	d503201f 	nop
   80850:	d503201f 	nop
   80854:	d503201f 	nop
   80858:	d503201f 	nop
   8085c:	d503201f 	nop
   80860:	d503201f 	nop
   80864:	d503201f 	nop
   80868:	d503201f 	nop
   8086c:	d503201f 	nop
   80870:	d503201f 	nop
   80874:	d503201f 	nop
   80878:	d503201f 	nop
   8087c:	d503201f 	nop
   80880:	140001c3 	b	80f8c <curr_el_sp0_irq>
   80884:	d503201f 	nop
   80888:	d503201f 	nop
   8088c:	d503201f 	nop
   80890:	d503201f 	nop
   80894:	d503201f 	nop
   80898:	d503201f 	nop
   8089c:	d503201f 	nop
   808a0:	d503201f 	nop
   808a4:	d503201f 	nop
   808a8:	d503201f 	nop
   808ac:	d503201f 	nop
   808b0:	d503201f 	nop
   808b4:	d503201f 	nop
   808b8:	d503201f 	nop
   808bc:	d503201f 	nop
   808c0:	d503201f 	nop
   808c4:	d503201f 	nop
   808c8:	d503201f 	nop
   808cc:	d503201f 	nop
   808d0:	d503201f 	nop
   808d4:	d503201f 	nop
   808d8:	d503201f 	nop
   808dc:	d503201f 	nop
   808e0:	d503201f 	nop
   808e4:	d503201f 	nop
   808e8:	d503201f 	nop
   808ec:	d503201f 	nop
   808f0:	d503201f 	nop
   808f4:	d503201f 	nop
   808f8:	d503201f 	nop
   808fc:	d503201f 	nop
   80900:	140001a5 	b	80f94 <curr_el_sp0_fiq>
   80904:	d503201f 	nop
   80908:	d503201f 	nop
   8090c:	d503201f 	nop
   80910:	d503201f 	nop
   80914:	d503201f 	nop
   80918:	d503201f 	nop
   8091c:	d503201f 	nop
   80920:	d503201f 	nop
   80924:	d503201f 	nop
   80928:	d503201f 	nop
   8092c:	d503201f 	nop
   80930:	d503201f 	nop
   80934:	d503201f 	nop
   80938:	d503201f 	nop
   8093c:	d503201f 	nop
   80940:	d503201f 	nop
   80944:	d503201f 	nop
   80948:	d503201f 	nop
   8094c:	d503201f 	nop
   80950:	d503201f 	nop
   80954:	d503201f 	nop
   80958:	d503201f 	nop
   8095c:	d503201f 	nop
   80960:	d503201f 	nop
   80964:	d503201f 	nop
   80968:	d503201f 	nop
   8096c:	d503201f 	nop
   80970:	d503201f 	nop
   80974:	d503201f 	nop
   80978:	d503201f 	nop
   8097c:	d503201f 	nop
   80980:	14000187 	b	80f9c <curr_el_sp0_serror>
   80984:	d503201f 	nop
   80988:	d503201f 	nop
   8098c:	d503201f 	nop
   80990:	d503201f 	nop
   80994:	d503201f 	nop
   80998:	d503201f 	nop
   8099c:	d503201f 	nop
   809a0:	d503201f 	nop
   809a4:	d503201f 	nop
   809a8:	d503201f 	nop
   809ac:	d503201f 	nop
   809b0:	d503201f 	nop
   809b4:	d503201f 	nop
   809b8:	d503201f 	nop
   809bc:	d503201f 	nop
   809c0:	d503201f 	nop
   809c4:	d503201f 	nop
   809c8:	d503201f 	nop
   809cc:	d503201f 	nop
   809d0:	d503201f 	nop
   809d4:	d503201f 	nop
   809d8:	d503201f 	nop
   809dc:	d503201f 	nop
   809e0:	d503201f 	nop
   809e4:	d503201f 	nop
   809e8:	d503201f 	nop
   809ec:	d503201f 	nop
   809f0:	d503201f 	nop
   809f4:	d503201f 	nop
   809f8:	d503201f 	nop
   809fc:	d503201f 	nop
   80a00:	14000169 	b	80fa4 <curr_el_spx_sync>
   80a04:	d503201f 	nop
   80a08:	d503201f 	nop
   80a0c:	d503201f 	nop
   80a10:	d503201f 	nop
   80a14:	d503201f 	nop
   80a18:	d503201f 	nop
   80a1c:	d503201f 	nop
   80a20:	d503201f 	nop
   80a24:	d503201f 	nop
   80a28:	d503201f 	nop
   80a2c:	d503201f 	nop
   80a30:	d503201f 	nop
   80a34:	d503201f 	nop
   80a38:	d503201f 	nop
   80a3c:	d503201f 	nop
   80a40:	d503201f 	nop
   80a44:	d503201f 	nop
   80a48:	d503201f 	nop
   80a4c:	d503201f 	nop
   80a50:	d503201f 	nop
   80a54:	d503201f 	nop
   80a58:	d503201f 	nop
   80a5c:	d503201f 	nop
   80a60:	d503201f 	nop
   80a64:	d503201f 	nop
   80a68:	d503201f 	nop
   80a6c:	d503201f 	nop
   80a70:	d503201f 	nop
   80a74:	d503201f 	nop
   80a78:	d503201f 	nop
   80a7c:	d503201f 	nop
   80a80:	1400014b 	b	80fac <curr_el_spx_irq>
   80a84:	d503201f 	nop
   80a88:	d503201f 	nop
   80a8c:	d503201f 	nop
   80a90:	d503201f 	nop
   80a94:	d503201f 	nop
   80a98:	d503201f 	nop
   80a9c:	d503201f 	nop
   80aa0:	d503201f 	nop
   80aa4:	d503201f 	nop
   80aa8:	d503201f 	nop
   80aac:	d503201f 	nop
   80ab0:	d503201f 	nop
   80ab4:	d503201f 	nop
   80ab8:	d503201f 	nop
   80abc:	d503201f 	nop
   80ac0:	d503201f 	nop
   80ac4:	d503201f 	nop
   80ac8:	d503201f 	nop
   80acc:	d503201f 	nop
   80ad0:	d503201f 	nop
   80ad4:	d503201f 	nop
   80ad8:	d503201f 	nop
   80adc:	d503201f 	nop
   80ae0:	d503201f 	nop
   80ae4:	d503201f 	nop
   80ae8:	d503201f 	nop
   80aec:	d503201f 	nop
   80af0:	d503201f 	nop
   80af4:	d503201f 	nop
   80af8:	d503201f 	nop
   80afc:	d503201f 	nop
   80b00:	1400012d 	b	80fb4 <curr_el_spx_fiq>
   80b04:	d503201f 	nop
   80b08:	d503201f 	nop
   80b0c:	d503201f 	nop
   80b10:	d503201f 	nop
   80b14:	d503201f 	nop
   80b18:	d503201f 	nop
   80b1c:	d503201f 	nop
   80b20:	d503201f 	nop
   80b24:	d503201f 	nop
   80b28:	d503201f 	nop
   80b2c:	d503201f 	nop
   80b30:	d503201f 	nop
   80b34:	d503201f 	nop
   80b38:	d503201f 	nop
   80b3c:	d503201f 	nop
   80b40:	d503201f 	nop
   80b44:	d503201f 	nop
   80b48:	d503201f 	nop
   80b4c:	d503201f 	nop
   80b50:	d503201f 	nop
   80b54:	d503201f 	nop
   80b58:	d503201f 	nop
   80b5c:	d503201f 	nop
   80b60:	d503201f 	nop
   80b64:	d503201f 	nop
   80b68:	d503201f 	nop
   80b6c:	d503201f 	nop
   80b70:	d503201f 	nop
   80b74:	d503201f 	nop
   80b78:	d503201f 	nop
   80b7c:	d503201f 	nop
   80b80:	1400010f 	b	80fbc <curr_el_spx_serror>
   80b84:	d503201f 	nop
   80b88:	d503201f 	nop
   80b8c:	d503201f 	nop
   80b90:	d503201f 	nop
   80b94:	d503201f 	nop
   80b98:	d503201f 	nop
   80b9c:	d503201f 	nop
   80ba0:	d503201f 	nop
   80ba4:	d503201f 	nop
   80ba8:	d503201f 	nop
   80bac:	d503201f 	nop
   80bb0:	d503201f 	nop
   80bb4:	d503201f 	nop
   80bb8:	d503201f 	nop
   80bbc:	d503201f 	nop
   80bc0:	d503201f 	nop
   80bc4:	d503201f 	nop
   80bc8:	d503201f 	nop
   80bcc:	d503201f 	nop
   80bd0:	d503201f 	nop
   80bd4:	d503201f 	nop
   80bd8:	d503201f 	nop
   80bdc:	d503201f 	nop
   80be0:	d503201f 	nop
   80be4:	d503201f 	nop
   80be8:	d503201f 	nop
   80bec:	d503201f 	nop
   80bf0:	d503201f 	nop
   80bf4:	d503201f 	nop
   80bf8:	d503201f 	nop
   80bfc:	d503201f 	nop
   80c00:	140000f1 	b	80fc4 <lower_el_aarch64_sync>
   80c04:	d503201f 	nop
   80c08:	d503201f 	nop
   80c0c:	d503201f 	nop
   80c10:	d503201f 	nop
   80c14:	d503201f 	nop
   80c18:	d503201f 	nop
   80c1c:	d503201f 	nop
   80c20:	d503201f 	nop
   80c24:	d503201f 	nop
   80c28:	d503201f 	nop
   80c2c:	d503201f 	nop
   80c30:	d503201f 	nop
   80c34:	d503201f 	nop
   80c38:	d503201f 	nop
   80c3c:	d503201f 	nop
   80c40:	d503201f 	nop
   80c44:	d503201f 	nop
   80c48:	d503201f 	nop
   80c4c:	d503201f 	nop
   80c50:	d503201f 	nop
   80c54:	d503201f 	nop
   80c58:	d503201f 	nop
   80c5c:	d503201f 	nop
   80c60:	d503201f 	nop
   80c64:	d503201f 	nop
   80c68:	d503201f 	nop
   80c6c:	d503201f 	nop
   80c70:	d503201f 	nop
   80c74:	d503201f 	nop
   80c78:	d503201f 	nop
   80c7c:	d503201f 	nop
   80c80:	140000d3 	b	80fcc <lower_el_aarch64_irq>
   80c84:	d503201f 	nop
   80c88:	d503201f 	nop
   80c8c:	d503201f 	nop
   80c90:	d503201f 	nop
   80c94:	d503201f 	nop
   80c98:	d503201f 	nop
   80c9c:	d503201f 	nop
   80ca0:	d503201f 	nop
   80ca4:	d503201f 	nop
   80ca8:	d503201f 	nop
   80cac:	d503201f 	nop
   80cb0:	d503201f 	nop
   80cb4:	d503201f 	nop
   80cb8:	d503201f 	nop
   80cbc:	d503201f 	nop
   80cc0:	d503201f 	nop
   80cc4:	d503201f 	nop
   80cc8:	d503201f 	nop
   80ccc:	d503201f 	nop
   80cd0:	d503201f 	nop
   80cd4:	d503201f 	nop
   80cd8:	d503201f 	nop
   80cdc:	d503201f 	nop
   80ce0:	d503201f 	nop
   80ce4:	d503201f 	nop
   80ce8:	d503201f 	nop
   80cec:	d503201f 	nop
   80cf0:	d503201f 	nop
   80cf4:	d503201f 	nop
   80cf8:	d503201f 	nop
   80cfc:	d503201f 	nop
   80d00:	140000b5 	b	80fd4 <lower_el_aarch64_fiq>
   80d04:	d503201f 	nop
   80d08:	d503201f 	nop
   80d0c:	d503201f 	nop
   80d10:	d503201f 	nop
   80d14:	d503201f 	nop
   80d18:	d503201f 	nop
   80d1c:	d503201f 	nop
   80d20:	d503201f 	nop
   80d24:	d503201f 	nop
   80d28:	d503201f 	nop
   80d2c:	d503201f 	nop
   80d30:	d503201f 	nop
   80d34:	d503201f 	nop
   80d38:	d503201f 	nop
   80d3c:	d503201f 	nop
   80d40:	d503201f 	nop
   80d44:	d503201f 	nop
   80d48:	d503201f 	nop
   80d4c:	d503201f 	nop
   80d50:	d503201f 	nop
   80d54:	d503201f 	nop
   80d58:	d503201f 	nop
   80d5c:	d503201f 	nop
   80d60:	d503201f 	nop
   80d64:	d503201f 	nop
   80d68:	d503201f 	nop
   80d6c:	d503201f 	nop
   80d70:	d503201f 	nop
   80d74:	d503201f 	nop
   80d78:	d503201f 	nop
   80d7c:	d503201f 	nop
   80d80:	14000097 	b	80fdc <lower_el_aarch64_serror>
   80d84:	d503201f 	nop
   80d88:	d503201f 	nop
   80d8c:	d503201f 	nop
   80d90:	d503201f 	nop
   80d94:	d503201f 	nop
   80d98:	d503201f 	nop
   80d9c:	d503201f 	nop
   80da0:	d503201f 	nop
   80da4:	d503201f 	nop
   80da8:	d503201f 	nop
   80dac:	d503201f 	nop
   80db0:	d503201f 	nop
   80db4:	d503201f 	nop
   80db8:	d503201f 	nop
   80dbc:	d503201f 	nop
   80dc0:	d503201f 	nop
   80dc4:	d503201f 	nop
   80dc8:	d503201f 	nop
   80dcc:	d503201f 	nop
   80dd0:	d503201f 	nop
   80dd4:	d503201f 	nop
   80dd8:	d503201f 	nop
   80ddc:	d503201f 	nop
   80de0:	d503201f 	nop
   80de4:	d503201f 	nop
   80de8:	d503201f 	nop
   80dec:	d503201f 	nop
   80df0:	d503201f 	nop
   80df4:	d503201f 	nop
   80df8:	d503201f 	nop
   80dfc:	d503201f 	nop
   80e00:	14000079 	b	80fe4 <lower_el_aarch32_sync>
   80e04:	d503201f 	nop
   80e08:	d503201f 	nop
   80e0c:	d503201f 	nop
   80e10:	d503201f 	nop
   80e14:	d503201f 	nop
   80e18:	d503201f 	nop
   80e1c:	d503201f 	nop
   80e20:	d503201f 	nop
   80e24:	d503201f 	nop
   80e28:	d503201f 	nop
   80e2c:	d503201f 	nop
   80e30:	d503201f 	nop
   80e34:	d503201f 	nop
   80e38:	d503201f 	nop
   80e3c:	d503201f 	nop
   80e40:	d503201f 	nop
   80e44:	d503201f 	nop
   80e48:	d503201f 	nop
   80e4c:	d503201f 	nop
   80e50:	d503201f 	nop
   80e54:	d503201f 	nop
   80e58:	d503201f 	nop
   80e5c:	d503201f 	nop
   80e60:	d503201f 	nop
   80e64:	d503201f 	nop
   80e68:	d503201f 	nop
   80e6c:	d503201f 	nop
   80e70:	d503201f 	nop
   80e74:	d503201f 	nop
   80e78:	d503201f 	nop
   80e7c:	d503201f 	nop
   80e80:	1400005b 	b	80fec <lower_el_aarch32_irq>
   80e84:	d503201f 	nop
   80e88:	d503201f 	nop
   80e8c:	d503201f 	nop
   80e90:	d503201f 	nop
   80e94:	d503201f 	nop
   80e98:	d503201f 	nop
   80e9c:	d503201f 	nop
   80ea0:	d503201f 	nop
   80ea4:	d503201f 	nop
   80ea8:	d503201f 	nop
   80eac:	d503201f 	nop
   80eb0:	d503201f 	nop
   80eb4:	d503201f 	nop
   80eb8:	d503201f 	nop
   80ebc:	d503201f 	nop
   80ec0:	d503201f 	nop
   80ec4:	d503201f 	nop
   80ec8:	d503201f 	nop
   80ecc:	d503201f 	nop
   80ed0:	d503201f 	nop
   80ed4:	d503201f 	nop
   80ed8:	d503201f 	nop
   80edc:	d503201f 	nop
   80ee0:	d503201f 	nop
   80ee4:	d503201f 	nop
   80ee8:	d503201f 	nop
   80eec:	d503201f 	nop
   80ef0:	d503201f 	nop
   80ef4:	d503201f 	nop
   80ef8:	d503201f 	nop
   80efc:	d503201f 	nop
   80f00:	1400003d 	b	80ff4 <lower_el_aarch32_fiq>
   80f04:	d503201f 	nop
   80f08:	d503201f 	nop
   80f0c:	d503201f 	nop
   80f10:	d503201f 	nop
   80f14:	d503201f 	nop
   80f18:	d503201f 	nop
   80f1c:	d503201f 	nop
   80f20:	d503201f 	nop
   80f24:	d503201f 	nop
   80f28:	d503201f 	nop
   80f2c:	d503201f 	nop
   80f30:	d503201f 	nop
   80f34:	d503201f 	nop
   80f38:	d503201f 	nop
   80f3c:	d503201f 	nop
   80f40:	d503201f 	nop
   80f44:	d503201f 	nop
   80f48:	d503201f 	nop
   80f4c:	d503201f 	nop
   80f50:	d503201f 	nop
   80f54:	d503201f 	nop
   80f58:	d503201f 	nop
   80f5c:	d503201f 	nop
   80f60:	d503201f 	nop
   80f64:	d503201f 	nop
   80f68:	d503201f 	nop
   80f6c:	d503201f 	nop
   80f70:	d503201f 	nop
   80f74:	d503201f 	nop
   80f78:	d503201f 	nop
   80f7c:	d503201f 	nop
   80f80:	1400001f 	b	80ffc <lower_el_aarch32_serror>

0000000000080f84 <curr_el_sp0_sync>:
   80f84:	d2800000 	mov	x0, #0x0                   	// #0
   80f88:	14000119 	b	813ec <invalid_exception>

0000000000080f8c <curr_el_sp0_irq>:
   80f8c:	d2800020 	mov	x0, #0x1                   	// #1
   80f90:	14000117 	b	813ec <invalid_exception>

0000000000080f94 <curr_el_sp0_fiq>:
   80f94:	d2800040 	mov	x0, #0x2                   	// #2
   80f98:	14000115 	b	813ec <invalid_exception>

0000000000080f9c <curr_el_sp0_serror>:
   80f9c:	d2800060 	mov	x0, #0x3                   	// #3
   80fa0:	14000113 	b	813ec <invalid_exception>

0000000000080fa4 <curr_el_spx_sync>:
   80fa4:	d2800080 	mov	x0, #0x4                   	// #4
   80fa8:	14000111 	b	813ec <invalid_exception>

0000000000080fac <curr_el_spx_irq>:
   80fac:	d28000a0 	mov	x0, #0x5                   	// #5
   80fb0:	1400010f 	b	813ec <invalid_exception>

0000000000080fb4 <curr_el_spx_fiq>:
   80fb4:	d28000c0 	mov	x0, #0x6                   	// #6
   80fb8:	1400010d 	b	813ec <invalid_exception>

0000000000080fbc <curr_el_spx_serror>:
   80fbc:	d28000e0 	mov	x0, #0x7                   	// #7
   80fc0:	1400010b 	b	813ec <invalid_exception>

0000000000080fc4 <lower_el_aarch64_sync>:
   80fc4:	d2800100 	mov	x0, #0x8                   	// #8
   80fc8:	140006b2 	b	82a90 <return_to_kernel>

0000000000080fcc <lower_el_aarch64_irq>:
   80fcc:	d2800120 	mov	x0, #0x9                   	// #9
   80fd0:	14000107 	b	813ec <invalid_exception>

0000000000080fd4 <lower_el_aarch64_fiq>:
   80fd4:	d2800140 	mov	x0, #0xa                   	// #10
   80fd8:	14000105 	b	813ec <invalid_exception>

0000000000080fdc <lower_el_aarch64_serror>:
   80fdc:	d2800160 	mov	x0, #0xb                   	// #11
   80fe0:	14000103 	b	813ec <invalid_exception>

0000000000080fe4 <lower_el_aarch32_sync>:
   80fe4:	d2800180 	mov	x0, #0xc                   	// #12
   80fe8:	14000101 	b	813ec <invalid_exception>

0000000000080fec <lower_el_aarch32_irq>:
   80fec:	d28001a0 	mov	x0, #0xd                   	// #13
   80ff0:	140000ff 	b	813ec <invalid_exception>

0000000000080ff4 <lower_el_aarch32_fiq>:
   80ff4:	d28001c0 	mov	x0, #0xe                   	// #14
   80ff8:	140000fd 	b	813ec <invalid_exception>

0000000000080ffc <lower_el_aarch32_serror>:
   80ffc:	d28001e0 	mov	x0, #0xf                   	// #15
   81000:	140000fb 	b	813ec <invalid_exception>

Disassembly of section .text:

0000000000081008 <init_exception_vector>:
   81008:	10ffbfc0 	adr	x0, 80800 <exception_vector>
   8100c:	d518c000 	msr	vbar_el1, x0
   81010:	d503201f 	nop
   81014:	d65f03c0 	ret

0000000000081018 <heap_init>:
   81018:	d10083ff 	sub	sp, sp, #0x20
   8101c:	f9000fe0 	str	x0, [sp, #24]
   81020:	f9000be1 	str	x1, [sp, #16]
   81024:	f90007e2 	str	x2, [sp, #8]
   81028:	f90003e3 	str	x3, [sp]
   8102c:	f9400fe0 	ldr	x0, [sp, #24]
   81030:	f94007e1 	ldr	x1, [sp, #8]
   81034:	f9000401 	str	x1, [x0, #8]
   81038:	f9400fe0 	ldr	x0, [sp, #24]
   8103c:	f900081f 	str	xzr, [x0, #16]
   81040:	f9400fe0 	ldr	x0, [sp, #24]
   81044:	f9400be1 	ldr	x1, [sp, #16]
   81048:	f9000001 	str	x1, [x0]
   8104c:	f9400fe0 	ldr	x0, [sp, #24]
   81050:	f94003e1 	ldr	x1, [sp]
   81054:	f9000c01 	str	x1, [x0, #24]
   81058:	d503201f 	nop
   8105c:	910083ff 	add	sp, sp, #0x20
   81060:	d65f03c0 	ret

0000000000081064 <swap>:
   81064:	d100c3ff 	sub	sp, sp, #0x30
   81068:	f9000fe0 	str	x0, [sp, #24]
   8106c:	f9000be1 	str	x1, [sp, #16]
   81070:	f90007e2 	str	x2, [sp, #8]
   81074:	f9400fe0 	ldr	x0, [sp, #24]
   81078:	f9400001 	ldr	x1, [x0]
   8107c:	f9400be0 	ldr	x0, [sp, #16]
   81080:	d37df000 	lsl	x0, x0, #3
   81084:	8b000020 	add	x0, x1, x0
   81088:	f9400000 	ldr	x0, [x0]
   8108c:	f90017e0 	str	x0, [sp, #40]
   81090:	f9400fe0 	ldr	x0, [sp, #24]
   81094:	f9400001 	ldr	x1, [x0]
   81098:	f94007e0 	ldr	x0, [sp, #8]
   8109c:	d37df000 	lsl	x0, x0, #3
   810a0:	8b000021 	add	x1, x1, x0
   810a4:	f9400fe0 	ldr	x0, [sp, #24]
   810a8:	f9400002 	ldr	x2, [x0]
   810ac:	f9400be0 	ldr	x0, [sp, #16]
   810b0:	d37df000 	lsl	x0, x0, #3
   810b4:	8b000040 	add	x0, x2, x0
   810b8:	f9400021 	ldr	x1, [x1]
   810bc:	f9000001 	str	x1, [x0]
   810c0:	f9400fe0 	ldr	x0, [sp, #24]
   810c4:	f9400001 	ldr	x1, [x0]
   810c8:	f94007e0 	ldr	x0, [sp, #8]
   810cc:	d37df000 	lsl	x0, x0, #3
   810d0:	8b000020 	add	x0, x1, x0
   810d4:	f94017e1 	ldr	x1, [sp, #40]
   810d8:	f9000001 	str	x1, [x0]
   810dc:	d503201f 	nop
   810e0:	9100c3ff 	add	sp, sp, #0x30
   810e4:	d65f03c0 	ret

00000000000810e8 <sift_up>:
   810e8:	a9bd7bfd 	stp	x29, x30, [sp, #-48]!
   810ec:	910003fd 	mov	x29, sp
   810f0:	f9000fe0 	str	x0, [sp, #24]
   810f4:	f9000be1 	str	x1, [sp, #16]
   810f8:	f9400be0 	ldr	x0, [sp, #16]
   810fc:	d1000400 	sub	x0, x0, #0x1
   81100:	d341fc00 	lsr	x0, x0, #1
   81104:	f90017e0 	str	x0, [sp, #40]
   81108:	1400000b 	b	81134 <sift_up+0x4c>
   8110c:	f94017e2 	ldr	x2, [sp, #40]
   81110:	f9400be1 	ldr	x1, [sp, #16]
   81114:	f9400fe0 	ldr	x0, [sp, #24]
   81118:	97ffffd3 	bl	81064 <swap>
   8111c:	f94017e0 	ldr	x0, [sp, #40]
   81120:	f9000be0 	str	x0, [sp, #16]
   81124:	f9400be0 	ldr	x0, [sp, #16]
   81128:	d1000400 	sub	x0, x0, #0x1
   8112c:	d341fc00 	lsr	x0, x0, #1
   81130:	f90017e0 	str	x0, [sp, #40]
   81134:	f9400be0 	ldr	x0, [sp, #16]
   81138:	f100001f 	cmp	x0, #0x0
   8113c:	54000280 	b.eq	8118c <sift_up+0xa4>  // b.none
   81140:	f9400fe0 	ldr	x0, [sp, #24]
   81144:	f9400c02 	ldr	x2, [x0, #24]
   81148:	f9400fe0 	ldr	x0, [sp, #24]
   8114c:	f9400001 	ldr	x1, [x0]
   81150:	f9400be0 	ldr	x0, [sp, #16]
   81154:	d37df000 	lsl	x0, x0, #3
   81158:	8b000020 	add	x0, x1, x0
   8115c:	f9400003 	ldr	x3, [x0]
   81160:	f9400fe0 	ldr	x0, [sp, #24]
   81164:	f9400001 	ldr	x1, [x0]
   81168:	f94017e0 	ldr	x0, [sp, #40]
   8116c:	d37df000 	lsl	x0, x0, #3
   81170:	8b000020 	add	x0, x1, x0
   81174:	f9400000 	ldr	x0, [x0]
   81178:	aa0003e1 	mov	x1, x0
   8117c:	aa0303e0 	mov	x0, x3
   81180:	d63f0040 	blr	x2
   81184:	7100001f 	cmp	w0, #0x0
   81188:	54fffc2b 	b.lt	8110c <sift_up+0x24>  // b.tstop
   8118c:	d503201f 	nop
   81190:	a8c37bfd 	ldp	x29, x30, [sp], #48
   81194:	d65f03c0 	ret

0000000000081198 <heap_push>:
   81198:	a9bd7bfd 	stp	x29, x30, [sp, #-48]!
   8119c:	910003fd 	mov	x29, sp
   811a0:	f9000fe0 	str	x0, [sp, #24]
   811a4:	f9000be1 	str	x1, [sp, #16]
   811a8:	f9400fe0 	ldr	x0, [sp, #24]
   811ac:	f9400801 	ldr	x1, [x0, #16]
   811b0:	f9400fe0 	ldr	x0, [sp, #24]
   811b4:	f9400400 	ldr	x0, [x0, #8]
   811b8:	eb00003f 	cmp	x1, x0
   811bc:	54000280 	b.eq	8120c <heap_push+0x74>  // b.none
   811c0:	f9400fe0 	ldr	x0, [sp, #24]
   811c4:	f9400800 	ldr	x0, [x0, #16]
   811c8:	f90017e0 	str	x0, [sp, #40]
   811cc:	f9400fe0 	ldr	x0, [sp, #24]
   811d0:	f9400001 	ldr	x1, [x0]
   811d4:	f94017e0 	ldr	x0, [sp, #40]
   811d8:	d37df000 	lsl	x0, x0, #3
   811dc:	8b000020 	add	x0, x1, x0
   811e0:	f9400be1 	ldr	x1, [sp, #16]
   811e4:	f9000001 	str	x1, [x0]
   811e8:	f9400fe0 	ldr	x0, [sp, #24]
   811ec:	f9400800 	ldr	x0, [x0, #16]
   811f0:	91000401 	add	x1, x0, #0x1
   811f4:	f9400fe0 	ldr	x0, [sp, #24]
   811f8:	f9000801 	str	x1, [x0, #16]
   811fc:	f94017e1 	ldr	x1, [sp, #40]
   81200:	f9400fe0 	ldr	x0, [sp, #24]
   81204:	97ffffb9 	bl	810e8 <sift_up>
   81208:	14000002 	b	81210 <heap_push+0x78>
   8120c:	d503201f 	nop
   81210:	a8c37bfd 	ldp	x29, x30, [sp], #48
   81214:	d65f03c0 	ret

0000000000081218 <sift_down>:
   81218:	a9bc7bfd 	stp	x29, x30, [sp, #-64]!
   8121c:	910003fd 	mov	x29, sp
   81220:	f9000fe0 	str	x0, [sp, #24]
   81224:	f9000be1 	str	x1, [sp, #16]
   81228:	14000049 	b	8134c <sift_down+0x134>
   8122c:	f9400be0 	ldr	x0, [sp, #16]
   81230:	d37ff800 	lsl	x0, x0, #1
   81234:	91000400 	add	x0, x0, #0x1
   81238:	f9001be0 	str	x0, [sp, #48]
   8123c:	f9400be0 	ldr	x0, [sp, #16]
   81240:	91000400 	add	x0, x0, #0x1
   81244:	d37ff800 	lsl	x0, x0, #1
   81248:	f90017e0 	str	x0, [sp, #40]
   8124c:	f9400be0 	ldr	x0, [sp, #16]
   81250:	f9001fe0 	str	x0, [sp, #56]
   81254:	f9400fe0 	ldr	x0, [sp, #24]
   81258:	f9400800 	ldr	x0, [x0, #16]
   8125c:	f9401be1 	ldr	x1, [sp, #48]
   81260:	eb00003f 	cmp	x1, x0
   81264:	540002c2 	b.cs	812bc <sift_down+0xa4>  // b.hs, b.nlast
   81268:	f9400fe0 	ldr	x0, [sp, #24]
   8126c:	f9400c02 	ldr	x2, [x0, #24]
   81270:	f9400fe0 	ldr	x0, [sp, #24]
   81274:	f9400001 	ldr	x1, [x0]
   81278:	f9401be0 	ldr	x0, [sp, #48]
   8127c:	d37df000 	lsl	x0, x0, #3
   81280:	8b000020 	add	x0, x1, x0
   81284:	f9400003 	ldr	x3, [x0]
   81288:	f9400fe0 	ldr	x0, [sp, #24]
   8128c:	f9400001 	ldr	x1, [x0]
   81290:	f9401fe0 	ldr	x0, [sp, #56]
   81294:	d37df000 	lsl	x0, x0, #3
   81298:	8b000020 	add	x0, x1, x0
   8129c:	f9400000 	ldr	x0, [x0]
   812a0:	aa0003e1 	mov	x1, x0
   812a4:	aa0303e0 	mov	x0, x3
   812a8:	d63f0040 	blr	x2
   812ac:	7100001f 	cmp	w0, #0x0
   812b0:	5400006a 	b.ge	812bc <sift_down+0xa4>  // b.tcont
   812b4:	f9401be0 	ldr	x0, [sp, #48]
   812b8:	f9001fe0 	str	x0, [sp, #56]
   812bc:	f9400fe0 	ldr	x0, [sp, #24]
   812c0:	f9400800 	ldr	x0, [x0, #16]
   812c4:	f94017e1 	ldr	x1, [sp, #40]
   812c8:	eb00003f 	cmp	x1, x0
   812cc:	540002c2 	b.cs	81324 <sift_down+0x10c>  // b.hs, b.nlast
   812d0:	f9400fe0 	ldr	x0, [sp, #24]
   812d4:	f9400c02 	ldr	x2, [x0, #24]
   812d8:	f9400fe0 	ldr	x0, [sp, #24]
   812dc:	f9400001 	ldr	x1, [x0]
   812e0:	f94017e0 	ldr	x0, [sp, #40]
   812e4:	d37df000 	lsl	x0, x0, #3
   812e8:	8b000020 	add	x0, x1, x0
   812ec:	f9400003 	ldr	x3, [x0]
   812f0:	f9400fe0 	ldr	x0, [sp, #24]
   812f4:	f9400001 	ldr	x1, [x0]
   812f8:	f9401fe0 	ldr	x0, [sp, #56]
   812fc:	d37df000 	lsl	x0, x0, #3
   81300:	8b000020 	add	x0, x1, x0
   81304:	f9400000 	ldr	x0, [x0]
   81308:	aa0003e1 	mov	x1, x0
   8130c:	aa0303e0 	mov	x0, x3
   81310:	d63f0040 	blr	x2
   81314:	7100001f 	cmp	w0, #0x0
   81318:	5400006a 	b.ge	81324 <sift_down+0x10c>  // b.tcont
   8131c:	f94017e0 	ldr	x0, [sp, #40]
   81320:	f9001fe0 	str	x0, [sp, #56]
   81324:	f9401fe1 	ldr	x1, [sp, #56]
   81328:	f9400be0 	ldr	x0, [sp, #16]
   8132c:	eb00003f 	cmp	x1, x0
   81330:	540001a0 	b.eq	81364 <sift_down+0x14c>  // b.none
   81334:	f9401fe2 	ldr	x2, [sp, #56]
   81338:	f9400be1 	ldr	x1, [sp, #16]
   8133c:	f9400fe0 	ldr	x0, [sp, #24]
   81340:	97ffff49 	bl	81064 <swap>
   81344:	f9401fe0 	ldr	x0, [sp, #56]
   81348:	f9000be0 	str	x0, [sp, #16]
   8134c:	f9400fe0 	ldr	x0, [sp, #24]
   81350:	f9400800 	ldr	x0, [x0, #16]
   81354:	f9400be1 	ldr	x1, [sp, #16]
   81358:	eb00003f 	cmp	x1, x0
   8135c:	54fff683 	b.cc	8122c <sift_down+0x14>  // b.lo, b.ul, b.last
   81360:	14000002 	b	81368 <sift_down+0x150>
   81364:	d503201f 	nop
   81368:	a8c47bfd 	ldp	x29, x30, [sp], #64
   8136c:	d65f03c0 	ret

0000000000081370 <heap_pop>:
   81370:	a9bd7bfd 	stp	x29, x30, [sp, #-48]!
   81374:	910003fd 	mov	x29, sp
   81378:	f9000fe0 	str	x0, [sp, #24]
   8137c:	f9400fe0 	ldr	x0, [sp, #24]
   81380:	f9400800 	ldr	x0, [x0, #16]
   81384:	f100001f 	cmp	x0, #0x0
   81388:	54000061 	b.ne	81394 <heap_pop+0x24>  // b.any
   8138c:	d2800000 	mov	x0, #0x0                   	// #0
   81390:	14000015 	b	813e4 <heap_pop+0x74>
   81394:	f9400fe0 	ldr	x0, [sp, #24]
   81398:	f9400000 	ldr	x0, [x0]
   8139c:	f9400000 	ldr	x0, [x0]
   813a0:	f90017e0 	str	x0, [sp, #40]
   813a4:	f9400fe0 	ldr	x0, [sp, #24]
   813a8:	f9400800 	ldr	x0, [x0, #16]
   813ac:	d1000400 	sub	x0, x0, #0x1
   813b0:	aa0003e2 	mov	x2, x0
   813b4:	d2800001 	mov	x1, #0x0                   	// #0
   813b8:	f9400fe0 	ldr	x0, [sp, #24]
   813bc:	97ffff2a 	bl	81064 <swap>
   813c0:	f9400fe0 	ldr	x0, [sp, #24]
   813c4:	f9400800 	ldr	x0, [x0, #16]
   813c8:	d1000401 	sub	x1, x0, #0x1
   813cc:	f9400fe0 	ldr	x0, [sp, #24]
   813d0:	f9000801 	str	x1, [x0, #16]
   813d4:	d2800001 	mov	x1, #0x0                   	// #0
   813d8:	f9400fe0 	ldr	x0, [sp, #24]
   813dc:	97ffff8f 	bl	81218 <sift_down>
   813e0:	f94017e0 	ldr	x0, [sp, #40]
   813e4:	a8c37bfd 	ldp	x29, x30, [sp], #48
   813e8:	d65f03c0 	ret

00000000000813ec <invalid_exception>:
   813ec:	a9be7bfd 	stp	x29, x30, [sp, #-32]!
   813f0:	910003fd 	mov	x29, sp
   813f4:	b9001fe0 	str	w0, [sp, #28]
   813f8:	b9401fe2 	ldr	w2, [sp, #28]
   813fc:	b0000000 	adrp	x0, 82000 <uart_puts+0x1c>
   81400:	91310001 	add	x1, x0, #0xc40
   81404:	d2800020 	mov	x0, #0x1                   	// #1
   81408:	940003b7 	bl	822e4 <uart_printf>
   8140c:	d503201f 	nop
   81410:	17ffffff 	b	8140c <invalid_exception+0x20>

0000000000081414 <Create>:
   81414:	a9bd7bfd 	stp	x29, x30, [sp, #-48]!
   81418:	910003fd 	mov	x29, sp
   8141c:	b9001fe0 	str	w0, [sp, #28]
   81420:	f9000be1 	str	x1, [sp, #16]
   81424:	f9400be3 	ldr	x3, [sp, #16]
   81428:	b9401fe2 	ldr	w2, [sp, #28]
   8142c:	b0000000 	adrp	x0, 82000 <uart_puts+0x1c>
   81430:	91316001 	add	x1, x0, #0xc58
   81434:	d2800020 	mov	x0, #0x1                   	// #1
   81438:	940003ca 	bl	82360 <uart_dprintf>
   8143c:	b9401fe0 	ldr	w0, [sp, #28]
   81440:	f9400be1 	ldr	x1, [sp, #16]
   81444:	aa0003e1 	mov	x1, x0
   81448:	aa0103e2 	mov	x2, x1
   8144c:	d4000021 	svc	#0x1
   81450:	aa0003e0 	mov	x0, x0
   81454:	b9002fe0 	str	w0, [sp, #44]
   81458:	b9402fe0 	ldr	w0, [sp, #44]
   8145c:	a8c37bfd 	ldp	x29, x30, [sp], #48
   81460:	d65f03c0 	ret

0000000000081464 <MyTid>:
   81464:	a9be7bfd 	stp	x29, x30, [sp, #-32]!
   81468:	910003fd 	mov	x29, sp
   8146c:	b0000000 	adrp	x0, 82000 <uart_puts+0x1c>
   81470:	9131c001 	add	x1, x0, #0xc70
   81474:	d2800020 	mov	x0, #0x1                   	// #1
   81478:	940003ba 	bl	82360 <uart_dprintf>
   8147c:	d4000041 	svc	#0x2
   81480:	aa0003e0 	mov	x0, x0
   81484:	b9001fe0 	str	w0, [sp, #28]
   81488:	b9401fe2 	ldr	w2, [sp, #28]
   8148c:	b0000000 	adrp	x0, 82000 <uart_puts+0x1c>
   81490:	91320001 	add	x1, x0, #0xc80
   81494:	d2800020 	mov	x0, #0x1                   	// #1
   81498:	940003b2 	bl	82360 <uart_dprintf>
   8149c:	b9401fe0 	ldr	w0, [sp, #28]
   814a0:	a8c27bfd 	ldp	x29, x30, [sp], #32
   814a4:	d65f03c0 	ret

00000000000814a8 <MyParentTid>:
   814a8:	a9be7bfd 	stp	x29, x30, [sp, #-32]!
   814ac:	910003fd 	mov	x29, sp
   814b0:	b0000000 	adrp	x0, 82000 <uart_puts+0x1c>
   814b4:	91324001 	add	x1, x0, #0xc90
   814b8:	d2800020 	mov	x0, #0x1                   	// #1
   814bc:	940003a9 	bl	82360 <uart_dprintf>
   814c0:	d4000061 	svc	#0x3
   814c4:	aa0003e0 	mov	x0, x0
   814c8:	b9001fe0 	str	w0, [sp, #28]
   814cc:	b9401fe2 	ldr	w2, [sp, #28]
   814d0:	b0000000 	adrp	x0, 82000 <uart_puts+0x1c>
   814d4:	9132a001 	add	x1, x0, #0xca8
   814d8:	d2800020 	mov	x0, #0x1                   	// #1
   814dc:	940003a1 	bl	82360 <uart_dprintf>
   814e0:	b9401fe0 	ldr	w0, [sp, #28]
   814e4:	a8c27bfd 	ldp	x29, x30, [sp], #32
   814e8:	d65f03c0 	ret

00000000000814ec <Yield>:
   814ec:	a9bf7bfd 	stp	x29, x30, [sp, #-16]!
   814f0:	910003fd 	mov	x29, sp
   814f4:	b0000000 	adrp	x0, 82000 <uart_puts+0x1c>
   814f8:	91330001 	add	x1, x0, #0xcc0
   814fc:	d2800020 	mov	x0, #0x1                   	// #1
   81500:	94000398 	bl	82360 <uart_dprintf>
   81504:	d4000081 	svc	#0x4
   81508:	d503201f 	nop
   8150c:	a8c17bfd 	ldp	x29, x30, [sp], #16
   81510:	d65f03c0 	ret

0000000000081514 <Exit>:
   81514:	a9bf7bfd 	stp	x29, x30, [sp, #-16]!
   81518:	910003fd 	mov	x29, sp
   8151c:	b0000000 	adrp	x0, 82000 <uart_puts+0x1c>
   81520:	91336001 	add	x1, x0, #0xcd8
   81524:	d2800020 	mov	x0, #0x1                   	// #1
   81528:	9400038e 	bl	82360 <uart_dprintf>
   8152c:	d40000a1 	svc	#0x5
   81530:	d503201f 	nop
   81534:	a8c17bfd 	ldp	x29, x30, [sp], #16
   81538:	d65f03c0 	ret

000000000008153c <user_task>:
   8153c:	a9be7bfd 	stp	x29, x30, [sp, #-32]!
   81540:	910003fd 	mov	x29, sp
   81544:	b0000000 	adrp	x0, 82000 <uart_puts+0x1c>
   81548:	9133a001 	add	x1, x0, #0xce8
   8154c:	d2800020 	mov	x0, #0x1                   	// #1
   81550:	94000384 	bl	82360 <uart_dprintf>
   81554:	97ffffc4 	bl	81464 <MyTid>
   81558:	b9001fe0 	str	w0, [sp, #28]
   8155c:	97ffffd3 	bl	814a8 <MyParentTid>
   81560:	b9001be0 	str	w0, [sp, #24]
   81564:	b9401be3 	ldr	w3, [sp, #24]
   81568:	b9401fe2 	ldr	w2, [sp, #28]
   8156c:	b0000000 	adrp	x0, 82000 <uart_puts+0x1c>
   81570:	9133e001 	add	x1, x0, #0xcf8
   81574:	d2800020 	mov	x0, #0x1                   	// #1
   81578:	9400035b 	bl	822e4 <uart_printf>
   8157c:	97ffffdc 	bl	814ec <Yield>
   81580:	b9401be3 	ldr	w3, [sp, #24]
   81584:	b9401fe2 	ldr	w2, [sp, #28]
   81588:	b0000000 	adrp	x0, 82000 <uart_puts+0x1c>
   8158c:	9133e001 	add	x1, x0, #0xcf8
   81590:	d2800020 	mov	x0, #0x1                   	// #1
   81594:	94000354 	bl	822e4 <uart_printf>
   81598:	d503201f 	nop
   8159c:	a8c27bfd 	ldp	x29, x30, [sp], #32
   815a0:	d65f03c0 	ret

00000000000815a4 <rootTask>:
   815a4:	a9bd7bfd 	stp	x29, x30, [sp, #-48]!
   815a8:	910003fd 	mov	x29, sp
   815ac:	b0000000 	adrp	x0, 82000 <uart_puts+0x1c>
   815b0:	91348001 	add	x1, x0, #0xd20
   815b4:	d2800020 	mov	x0, #0x1                   	// #1
   815b8:	9400036a 	bl	82360 <uart_dprintf>
   815bc:	97ffffaa 	bl	81464 <MyTid>
   815c0:	b9002fe0 	str	w0, [sp, #44]
   815c4:	97ffffb9 	bl	814a8 <MyParentTid>
   815c8:	b9002be0 	str	w0, [sp, #40]
   815cc:	90000000 	adrp	x0, 81000 <lower_el_aarch32_serror+0x4>
   815d0:	9114f001 	add	x1, x0, #0x53c
   815d4:	52800060 	mov	w0, #0x3                   	// #3
   815d8:	97ffff8f 	bl	81414 <Create>
   815dc:	b90027e0 	str	w0, [sp, #36]
   815e0:	b94027e2 	ldr	w2, [sp, #36]
   815e4:	b0000000 	adrp	x0, 82000 <uart_puts+0x1c>
   815e8:	9134c001 	add	x1, x0, #0xd30
   815ec:	d2800020 	mov	x0, #0x1                   	// #1
   815f0:	9400033d 	bl	822e4 <uart_printf>
   815f4:	90000000 	adrp	x0, 81000 <lower_el_aarch32_serror+0x4>
   815f8:	9114f001 	add	x1, x0, #0x53c
   815fc:	52800060 	mov	w0, #0x3                   	// #3
   81600:	97ffff85 	bl	81414 <Create>
   81604:	b90023e0 	str	w0, [sp, #32]
   81608:	b94023e2 	ldr	w2, [sp, #32]
   8160c:	b0000000 	adrp	x0, 82000 <uart_puts+0x1c>
   81610:	9134c001 	add	x1, x0, #0xd30
   81614:	d2800020 	mov	x0, #0x1                   	// #1
   81618:	94000333 	bl	822e4 <uart_printf>
   8161c:	90000000 	adrp	x0, 81000 <lower_el_aarch32_serror+0x4>
   81620:	9114f001 	add	x1, x0, #0x53c
   81624:	52800020 	mov	w0, #0x1                   	// #1
   81628:	97ffff7b 	bl	81414 <Create>
   8162c:	b9001fe0 	str	w0, [sp, #28]
   81630:	b9401fe2 	ldr	w2, [sp, #28]
   81634:	b0000000 	adrp	x0, 82000 <uart_puts+0x1c>
   81638:	9134c001 	add	x1, x0, #0xd30
   8163c:	d2800020 	mov	x0, #0x1                   	// #1
   81640:	94000329 	bl	822e4 <uart_printf>
   81644:	90000000 	adrp	x0, 81000 <lower_el_aarch32_serror+0x4>
   81648:	9114f001 	add	x1, x0, #0x53c
   8164c:	52800020 	mov	w0, #0x1                   	// #1
   81650:	97ffff71 	bl	81414 <Create>
   81654:	b9001be0 	str	w0, [sp, #24]
   81658:	b9401be2 	ldr	w2, [sp, #24]
   8165c:	b0000000 	adrp	x0, 82000 <uart_puts+0x1c>
   81660:	9134c001 	add	x1, x0, #0xd30
   81664:	d2800020 	mov	x0, #0x1                   	// #1
   81668:	9400031f 	bl	822e4 <uart_printf>
   8166c:	b0000000 	adrp	x0, 82000 <uart_puts+0x1c>
   81670:	91350001 	add	x1, x0, #0xd40
   81674:	d2800020 	mov	x0, #0x1                   	// #1
   81678:	9400031b 	bl	822e4 <uart_printf>
   8167c:	d503201f 	nop
   81680:	a8c37bfd 	ldp	x29, x30, [sp], #48
   81684:	d65f03c0 	ret

0000000000081688 <get_time>:
   81688:	d2860080 	mov	x0, #0x3004                	// #12292
   8168c:	f2bfc000 	movk	x0, #0xfe00, lsl #16
   81690:	b9400000 	ldr	w0, [x0]
   81694:	d65f03c0 	ret

0000000000081698 <run_task>:
   81698:	a9bd7bfd 	stp	x29, x30, [sp, #-48]!
   8169c:	910003fd 	mov	x29, sp
   816a0:	f9000fe0 	str	x0, [sp, #24]
   816a4:	f9400fe0 	ldr	x0, [sp, #24]
   816a8:	b9411000 	ldr	w0, [x0, #272]
   816ac:	2a0003e2 	mov	w2, w0
   816b0:	b0000000 	adrp	x0, 82000 <uart_puts+0x1c>
   816b4:	91358001 	add	x1, x0, #0xd60
   816b8:	d2800020 	mov	x0, #0x1                   	// #1
   816bc:	94000329 	bl	82360 <uart_dprintf>
   816c0:	9400048e 	bl	828f8 <context_switch_to_task>
   816c4:	f9400fe0 	ldr	x0, [sp, #24]
   816c8:	b9411000 	ldr	w0, [x0, #272]
   816cc:	2a0003e2 	mov	w2, w0
   816d0:	b0000000 	adrp	x0, 82000 <uart_puts+0x1c>
   816d4:	9135e001 	add	x1, x0, #0xd78
   816d8:	d2800020 	mov	x0, #0x1                   	// #1
   816dc:	94000321 	bl	82360 <uart_dprintf>
   816e0:	d5385200 	mrs	x0, esr_el1
   816e4:	f90017e0 	str	x0, [sp, #40]
   816e8:	f94017e0 	ldr	x0, [sp, #40]
   816ec:	92400c00 	and	x0, x0, #0xf
   816f0:	f90013e0 	str	x0, [sp, #32]
   816f4:	f94013e0 	ldr	x0, [sp, #32]
   816f8:	a8c37bfd 	ldp	x29, x30, [sp], #48
   816fc:	d65f03c0 	ret

0000000000081700 <kernel_frame_init>:
   81700:	d10043ff 	sub	sp, sp, #0x10
   81704:	f90007e0 	str	x0, [sp, #8]
   81708:	f94007e0 	ldr	x0, [sp, #8]
   8170c:	b901101f 	str	wzr, [x0, #272]
   81710:	f94007e0 	ldr	x0, [sp, #8]
   81714:	b901141f 	str	wzr, [x0, #276]
   81718:	f94007e0 	ldr	x0, [sp, #8]
   8171c:	f900901f 	str	xzr, [x0, #288]
   81720:	f94007e0 	ldr	x0, [sp, #8]
   81724:	b9011c1f 	str	wzr, [x0, #284]
   81728:	d503201f 	nop
   8172c:	910043ff 	add	sp, sp, #0x10
   81730:	d65f03c0 	ret

0000000000081734 <task_init>:
   81734:	d100c3ff 	sub	sp, sp, #0x30
   81738:	f90017e0 	str	x0, [sp, #40]
   8173c:	b90027e1 	str	w1, [sp, #36]
   81740:	b90023e2 	str	w2, [sp, #32]
   81744:	f9000fe3 	str	x3, [sp, #24]
   81748:	b90017e4 	str	w4, [sp, #20]
   8174c:	b90013e5 	str	w5, [sp, #16]
   81750:	f90007e6 	str	x6, [sp, #8]
   81754:	f90003e7 	str	x7, [sp]
   81758:	f94017e0 	ldr	x0, [sp, #40]
   8175c:	b94027e1 	ldr	w1, [sp, #36]
   81760:	b9011c01 	str	w1, [x0, #284]
   81764:	f9400fe1 	ldr	x1, [sp, #24]
   81768:	f94017e0 	ldr	x0, [sp, #40]
   8176c:	f9008001 	str	x1, [x0, #256]
   81770:	b94017e1 	ldr	w1, [sp, #20]
   81774:	f94017e0 	ldr	x0, [sp, #40]
   81778:	b9011001 	str	w1, [x0, #272]
   8177c:	b94013e1 	ldr	w1, [sp, #16]
   81780:	f94017e0 	ldr	x0, [sp, #40]
   81784:	b9011401 	str	w1, [x0, #276]
   81788:	f94017e0 	ldr	x0, [sp, #40]
   8178c:	f94007e1 	ldr	x1, [sp, #8]
   81790:	f9007801 	str	x1, [x0, #240]
   81794:	f94017e0 	ldr	x0, [sp, #40]
   81798:	f94003e1 	ldr	x1, [sp]
   8179c:	f9008401 	str	x1, [x0, #264]
   817a0:	f94017e0 	ldr	x0, [sp, #40]
   817a4:	b94023e1 	ldr	w1, [sp, #32]
   817a8:	b9011801 	str	w1, [x0, #280]
   817ac:	d503201f 	nop
   817b0:	9100c3ff 	add	sp, sp, #0x30
   817b4:	d65f03c0 	ret

00000000000817b8 <kmain>:
   817b8:	d2832c0c 	mov	x12, #0x1960                	// #6496
   817bc:	cb2c63ff 	sub	sp, sp, x12
   817c0:	a9007bfd 	stp	x29, x30, [sp]
   817c4:	910003fd 	mov	x29, sp
   817c8:	f9000bf3 	str	x19, [sp, #16]
   817cc:	97fffe0f 	bl	81008 <init_exception_vector>
   817d0:	94000135 	bl	81ca4 <gpio_init>
   817d4:	d2800020 	mov	x0, #0x1                   	// #1
   817d8:	9400015c 	bl	81d48 <uart_config_and_enable>
   817dc:	d2800040 	mov	x0, #0x2                   	// #2
   817e0:	9400015a 	bl	81d48 <uart_config_and_enable>
   817e4:	b0000000 	adrp	x0, 82000 <uart_puts+0x1c>
   817e8:	91368001 	add	x1, x0, #0xda0
   817ec:	d2800020 	mov	x0, #0x1                   	// #1
   817f0:	940002bd 	bl	822e4 <uart_printf>
   817f4:	914007e0 	add	x0, sp, #0x1, lsl #12
   817f8:	91202000 	add	x0, x0, #0x808
   817fc:	97ffffc1 	bl	81700 <kernel_frame_init>
   81800:	b0000000 	adrp	x0, 82000 <uart_puts+0x1c>
   81804:	913c4000 	add	x0, x0, #0xf10
   81808:	914007e1 	add	x1, sp, #0x1, lsl #12
   8180c:	91202021 	add	x1, x1, #0x808
   81810:	f9000001 	str	x1, [x0]
   81814:	9103a3e0 	add	x0, sp, #0xe8
   81818:	d2800283 	mov	x3, #0x14                  	// #20
   8181c:	d2807d02 	mov	x2, #0x3e8                 	// #1000
   81820:	d29b3401 	mov	x1, #0xd9a0                	// #55712
   81824:	f2a00101 	movk	x1, #0x8, lsl #16
   81828:	940002ed 	bl	823dc <tasks_init>
   8182c:	9100a3e1 	add	x1, sp, #0x28
   81830:	910323e4 	add	x4, sp, #0xc8
   81834:	b0000000 	adrp	x0, 82000 <uart_puts+0x1c>
   81838:	91144003 	add	x3, x0, #0x510
   8183c:	d2800282 	mov	x2, #0x14                  	// #20
   81840:	aa0403e0 	mov	x0, x4
   81844:	97fffdf5 	bl	81018 <heap_init>
   81848:	b9195fff 	str	wzr, [sp, #6492]
   8184c:	94000357 	bl	825a8 <getNextFreeTaskFrame>
   81850:	f90cabe0 	str	x0, [sp, #6480]
   81854:	97ffff8d 	bl	81688 <get_time>
   81858:	2a0003e2 	mov	w2, w0
   8185c:	b9595fe1 	ldr	w1, [sp, #6492]
   81860:	b0000000 	adrp	x0, 82000 <uart_puts+0x1c>
   81864:	913c4000 	add	x0, x0, #0xf10
   81868:	f9400000 	ldr	x0, [x0]
   8186c:	b9411000 	ldr	w0, [x0, #272]
   81870:	2a0003e3 	mov	w3, w0
   81874:	90000000 	adrp	x0, 81000 <lower_el_aarch32_serror+0x4>
   81878:	91145000 	add	x0, x0, #0x514
   8187c:	d2805807 	mov	x7, #0x2c0                 	// #704
   81880:	f2ac0007 	movk	x7, #0x6000, lsl #16
   81884:	aa0003e6 	mov	x6, x0
   81888:	2a0303e5 	mov	w5, w3
   8188c:	2a0103e4 	mov	w4, w1
   81890:	90000000 	adrp	x0, 81000 <lower_el_aarch32_serror+0x4>
   81894:	91169003 	add	x3, x0, #0x5a4
   81898:	52800041 	mov	w1, #0x2                   	// #2
   8189c:	f94cabe0 	ldr	x0, [sp, #6480]
   818a0:	97ffffa5 	bl	81734 <task_init>
   818a4:	b9595fe0 	ldr	w0, [sp, #6492]
   818a8:	11000400 	add	w0, w0, #0x1
   818ac:	b9195fe0 	str	w0, [sp, #6492]
   818b0:	910323e0 	add	x0, sp, #0xc8
   818b4:	f94cabe1 	ldr	x1, [sp, #6480]
   818b8:	97fffe38 	bl	81198 <heap_push>
   818bc:	910323e0 	add	x0, sp, #0xc8
   818c0:	97fffeac 	bl	81370 <heap_pop>
   818c4:	aa0003e1 	mov	x1, x0
   818c8:	b0000000 	adrp	x0, 82000 <uart_puts+0x1c>
   818cc:	913c6000 	add	x0, x0, #0xf18
   818d0:	f9000001 	str	x1, [x0]
   818d4:	b0000000 	adrp	x0, 82000 <uart_puts+0x1c>
   818d8:	913c6000 	add	x0, x0, #0xf18
   818dc:	f9400000 	ldr	x0, [x0]
   818e0:	f100001f 	cmp	x0, #0x0
   818e4:	540000e1 	b.ne	81900 <kmain+0x148>  // b.any
   818e8:	b0000000 	adrp	x0, 82000 <uart_puts+0x1c>
   818ec:	9136e001 	add	x1, x0, #0xdb8
   818f0:	d2800020 	mov	x0, #0x1                   	// #1
   818f4:	9400029b 	bl	82360 <uart_dprintf>
   818f8:	d503201f 	nop
   818fc:	17ffffff 	b	818f8 <kmain+0x140>
   81900:	b0000000 	adrp	x0, 82000 <uart_puts+0x1c>
   81904:	913c6000 	add	x0, x0, #0xf18
   81908:	f9400000 	ldr	x0, [x0]
   8190c:	97ffff63 	bl	81698 <run_task>
   81910:	b9194fe0 	str	w0, [sp, #6476]
   81914:	b0000000 	adrp	x0, 82000 <uart_puts+0x1c>
   81918:	91374001 	add	x1, x0, #0xdd0
   8191c:	d2800020 	mov	x0, #0x1                   	// #1
   81920:	94000290 	bl	82360 <uart_dprintf>
   81924:	b9594fe0 	ldr	w0, [sp, #6476]
   81928:	7100041f 	cmp	w0, #0x1
   8192c:	54000621 	b.ne	819f0 <kmain+0x238>  // b.any
   81930:	9400031e 	bl	825a8 <getNextFreeTaskFrame>
   81934:	f90ca3e0 	str	x0, [sp, #6464]
   81938:	aa0103e1 	mov	x1, x1
   8193c:	aa0203e0 	mov	x0, x2
   81940:	b9193fe1 	str	w1, [sp, #6460]
   81944:	f90c9be0 	str	x0, [sp, #6448]
   81948:	b9593ff3 	ldr	w19, [sp, #6460]
   8194c:	97ffff4f 	bl	81688 <get_time>
   81950:	2a0003e2 	mov	w2, w0
   81954:	b9595fe1 	ldr	w1, [sp, #6492]
   81958:	b0000000 	adrp	x0, 82000 <uart_puts+0x1c>
   8195c:	913c6000 	add	x0, x0, #0xf18
   81960:	f9400000 	ldr	x0, [x0]
   81964:	b9411000 	ldr	w0, [x0, #272]
   81968:	2a0003e3 	mov	w3, w0
   8196c:	90000000 	adrp	x0, 81000 <lower_el_aarch32_serror+0x4>
   81970:	91145000 	add	x0, x0, #0x514
   81974:	d2805807 	mov	x7, #0x2c0                 	// #704
   81978:	f2ac0007 	movk	x7, #0x6000, lsl #16
   8197c:	aa0003e6 	mov	x6, x0
   81980:	2a0303e5 	mov	w5, w3
   81984:	2a0103e4 	mov	w4, w1
   81988:	f94c9be3 	ldr	x3, [sp, #6448]
   8198c:	2a1303e1 	mov	w1, w19
   81990:	f94ca3e0 	ldr	x0, [sp, #6464]
   81994:	97ffff68 	bl	81734 <task_init>
   81998:	910323e0 	add	x0, sp, #0xc8
   8199c:	f94ca3e1 	ldr	x1, [sp, #6464]
   819a0:	97fffdfe 	bl	81198 <heap_push>
   819a4:	b0000000 	adrp	x0, 82000 <uart_puts+0x1c>
   819a8:	913c6000 	add	x0, x0, #0xf18
   819ac:	f9400013 	ldr	x19, [x0]
   819b0:	97ffff36 	bl	81688 <get_time>
   819b4:	b9011a60 	str	w0, [x19, #280]
   819b8:	b0000000 	adrp	x0, 82000 <uart_puts+0x1c>
   819bc:	913c6000 	add	x0, x0, #0xf18
   819c0:	f9400000 	ldr	x0, [x0]
   819c4:	b9995fe1 	ldrsw	x1, [sp, #6492]
   819c8:	f9000001 	str	x1, [x0]
   819cc:	b0000000 	adrp	x0, 82000 <uart_puts+0x1c>
   819d0:	913c6000 	add	x0, x0, #0xf18
   819d4:	f9400001 	ldr	x1, [x0]
   819d8:	910323e0 	add	x0, sp, #0xc8
   819dc:	97fffdef 	bl	81198 <heap_push>
   819e0:	b9595fe0 	ldr	w0, [sp, #6492]
   819e4:	11000400 	add	w0, w0, #0x1
   819e8:	b9195fe0 	str	w0, [sp, #6492]
   819ec:	17ffffb4 	b	818bc <kmain+0x104>
   819f0:	b9594fe0 	ldr	w0, [sp, #6476]
   819f4:	7100141f 	cmp	w0, #0x5
   819f8:	540000c1 	b.ne	81a10 <kmain+0x258>  // b.any
   819fc:	b0000000 	adrp	x0, 82000 <uart_puts+0x1c>
   81a00:	913c6000 	add	x0, x0, #0xf18
   81a04:	f9400000 	ldr	x0, [x0]
   81a08:	940002fe 	bl	82600 <reclaimTaskFrame>
   81a0c:	17ffffac 	b	818bc <kmain+0x104>
   81a10:	b9594fe0 	ldr	w0, [sp, #6476]
   81a14:	7100081f 	cmp	w0, #0x2
   81a18:	540002a1 	b.ne	81a6c <kmain+0x2b4>  // b.any
   81a1c:	b0000000 	adrp	x0, 82000 <uart_puts+0x1c>
   81a20:	913c6000 	add	x0, x0, #0xf18
   81a24:	f9400000 	ldr	x0, [x0]
   81a28:	b9411001 	ldr	w1, [x0, #272]
   81a2c:	b0000000 	adrp	x0, 82000 <uart_puts+0x1c>
   81a30:	913c6000 	add	x0, x0, #0xf18
   81a34:	f9400000 	ldr	x0, [x0]
   81a38:	93407c21 	sxtw	x1, w1
   81a3c:	f9000001 	str	x1, [x0]
   81a40:	b0000000 	adrp	x0, 82000 <uart_puts+0x1c>
   81a44:	913c6000 	add	x0, x0, #0xf18
   81a48:	f9400013 	ldr	x19, [x0]
   81a4c:	97ffff0f 	bl	81688 <get_time>
   81a50:	b9011a60 	str	w0, [x19, #280]
   81a54:	b0000000 	adrp	x0, 82000 <uart_puts+0x1c>
   81a58:	913c6000 	add	x0, x0, #0xf18
   81a5c:	f9400001 	ldr	x1, [x0]
   81a60:	910323e0 	add	x0, sp, #0xc8
   81a64:	97fffdcd 	bl	81198 <heap_push>
   81a68:	17ffff95 	b	818bc <kmain+0x104>
   81a6c:	b9594fe0 	ldr	w0, [sp, #6476]
   81a70:	71000c1f 	cmp	w0, #0x3
   81a74:	540002a1 	b.ne	81ac8 <kmain+0x310>  // b.any
   81a78:	b0000000 	adrp	x0, 82000 <uart_puts+0x1c>
   81a7c:	913c6000 	add	x0, x0, #0xf18
   81a80:	f9400000 	ldr	x0, [x0]
   81a84:	b9411401 	ldr	w1, [x0, #276]
   81a88:	b0000000 	adrp	x0, 82000 <uart_puts+0x1c>
   81a8c:	913c6000 	add	x0, x0, #0xf18
   81a90:	f9400000 	ldr	x0, [x0]
   81a94:	93407c21 	sxtw	x1, w1
   81a98:	f9000001 	str	x1, [x0]
   81a9c:	b0000000 	adrp	x0, 82000 <uart_puts+0x1c>
   81aa0:	913c6000 	add	x0, x0, #0xf18
   81aa4:	f9400013 	ldr	x19, [x0]
   81aa8:	97fffef8 	bl	81688 <get_time>
   81aac:	b9011a60 	str	w0, [x19, #280]
   81ab0:	b0000000 	adrp	x0, 82000 <uart_puts+0x1c>
   81ab4:	913c6000 	add	x0, x0, #0xf18
   81ab8:	f9400001 	ldr	x1, [x0]
   81abc:	910323e0 	add	x0, sp, #0xc8
   81ac0:	97fffdb6 	bl	81198 <heap_push>
   81ac4:	17ffff7e 	b	818bc <kmain+0x104>
   81ac8:	b9594fe0 	ldr	w0, [sp, #6476]
   81acc:	7100101f 	cmp	w0, #0x4
   81ad0:	54000181 	b.ne	81b00 <kmain+0x348>  // b.any
   81ad4:	b0000000 	adrp	x0, 82000 <uart_puts+0x1c>
   81ad8:	913c6000 	add	x0, x0, #0xf18
   81adc:	f9400013 	ldr	x19, [x0]
   81ae0:	97fffeea 	bl	81688 <get_time>
   81ae4:	b9011a60 	str	w0, [x19, #280]
   81ae8:	b0000000 	adrp	x0, 82000 <uart_puts+0x1c>
   81aec:	913c6000 	add	x0, x0, #0xf18
   81af0:	f9400001 	ldr	x1, [x0]
   81af4:	910323e0 	add	x0, sp, #0xc8
   81af8:	97fffda8 	bl	81198 <heap_push>
   81afc:	17ffff70 	b	818bc <kmain+0x104>
   81b00:	b9594fe2 	ldr	w2, [sp, #6476]
   81b04:	b0000000 	adrp	x0, 82000 <uart_puts+0x1c>
   81b08:	9137a001 	add	x1, x0, #0xde8
   81b0c:	d2800020 	mov	x0, #0x1                   	// #1
   81b10:	940001f5 	bl	822e4 <uart_printf>
   81b14:	d503201f 	nop
   81b18:	17ffffff 	b	81b14 <kmain+0x35c>

0000000000081b1c <setup_gpio>:
   81b1c:	d10083ff 	sub	sp, sp, #0x20
   81b20:	b9000fe0 	str	w0, [sp, #12]
   81b24:	b9000be1 	str	w1, [sp, #8]
   81b28:	b90007e2 	str	w2, [sp, #4]
   81b2c:	b9400fe1 	ldr	w1, [sp, #12]
   81b30:	529999a0 	mov	w0, #0xcccd                	// #52429
   81b34:	72b99980 	movk	w0, #0xcccc, lsl #16
   81b38:	9ba07c20 	umull	x0, w1, w0
   81b3c:	d360fc00 	lsr	x0, x0, #32
   81b40:	53037c00 	lsr	w0, w0, #3
   81b44:	b9001fe0 	str	w0, [sp, #28]
   81b48:	b9400fe2 	ldr	w2, [sp, #12]
   81b4c:	529999a0 	mov	w0, #0xcccd                	// #52429
   81b50:	72b99980 	movk	w0, #0xcccc, lsl #16
   81b54:	9ba07c40 	umull	x0, w2, w0
   81b58:	d360fc00 	lsr	x0, x0, #32
   81b5c:	53037c01 	lsr	w1, w0, #3
   81b60:	2a0103e0 	mov	w0, w1
   81b64:	531e7400 	lsl	w0, w0, #2
   81b68:	0b010000 	add	w0, w0, w1
   81b6c:	531f7800 	lsl	w0, w0, #1
   81b70:	4b000041 	sub	w1, w2, w0
   81b74:	2a0103e0 	mov	w0, w1
   81b78:	531f7800 	lsl	w0, w0, #1
   81b7c:	0b010000 	add	w0, w0, w1
   81b80:	b9001be0 	str	w0, [sp, #24]
   81b84:	d2bfc401 	mov	x1, #0xfe200000            	// #4263510016
   81b88:	b0000000 	adrp	x0, 82000 <uart_puts+0x1c>
   81b8c:	9138a000 	add	x0, x0, #0xe28
   81b90:	b9401fe2 	ldr	w2, [sp, #28]
   81b94:	b8627800 	ldr	w0, [x0, x2, lsl #2]
   81b98:	2a0003e0 	mov	w0, w0
   81b9c:	8b000020 	add	x0, x1, x0
   81ba0:	b9400000 	ldr	w0, [x0]
   81ba4:	b90017e0 	str	w0, [sp, #20]
   81ba8:	b9401be0 	ldr	w0, [sp, #24]
   81bac:	528000e1 	mov	w1, #0x7                   	// #7
   81bb0:	1ac02020 	lsl	w0, w1, w0
   81bb4:	2a2003e0 	mvn	w0, w0
   81bb8:	b94017e1 	ldr	w1, [sp, #20]
   81bbc:	0a000020 	and	w0, w1, w0
   81bc0:	b90017e0 	str	w0, [sp, #20]
   81bc4:	b9401be0 	ldr	w0, [sp, #24]
   81bc8:	b9400be1 	ldr	w1, [sp, #8]
   81bcc:	1ac02020 	lsl	w0, w1, w0
   81bd0:	b94017e1 	ldr	w1, [sp, #20]
   81bd4:	2a000020 	orr	w0, w1, w0
   81bd8:	b90017e0 	str	w0, [sp, #20]
   81bdc:	d2bfc401 	mov	x1, #0xfe200000            	// #4263510016
   81be0:	b0000000 	adrp	x0, 82000 <uart_puts+0x1c>
   81be4:	9138a000 	add	x0, x0, #0xe28
   81be8:	b9401fe2 	ldr	w2, [sp, #28]
   81bec:	b8627800 	ldr	w0, [x0, x2, lsl #2]
   81bf0:	2a0003e0 	mov	w0, w0
   81bf4:	8b000020 	add	x0, x1, x0
   81bf8:	b94017e1 	ldr	w1, [sp, #20]
   81bfc:	b9000001 	str	w1, [x0]
   81c00:	b9400fe0 	ldr	w0, [sp, #12]
   81c04:	53047c00 	lsr	w0, w0, #4
   81c08:	b9001fe0 	str	w0, [sp, #28]
   81c0c:	b9400fe0 	ldr	w0, [sp, #12]
   81c10:	12000c00 	and	w0, w0, #0xf
   81c14:	531f7800 	lsl	w0, w0, #1
   81c18:	b9001be0 	str	w0, [sp, #24]
   81c1c:	d2bfc401 	mov	x1, #0xfe200000            	// #4263510016
   81c20:	b0000000 	adrp	x0, 82000 <uart_puts+0x1c>
   81c24:	91390000 	add	x0, x0, #0xe40
   81c28:	b9401fe2 	ldr	w2, [sp, #28]
   81c2c:	b8627800 	ldr	w0, [x0, x2, lsl #2]
   81c30:	2a0003e0 	mov	w0, w0
   81c34:	8b000020 	add	x0, x1, x0
   81c38:	b9400000 	ldr	w0, [x0]
   81c3c:	b90017e0 	str	w0, [sp, #20]
   81c40:	b9401be0 	ldr	w0, [sp, #24]
   81c44:	52800061 	mov	w1, #0x3                   	// #3
   81c48:	1ac02020 	lsl	w0, w1, w0
   81c4c:	2a2003e0 	mvn	w0, w0
   81c50:	b94017e1 	ldr	w1, [sp, #20]
   81c54:	0a000020 	and	w0, w1, w0
   81c58:	b90017e0 	str	w0, [sp, #20]
   81c5c:	b9401be0 	ldr	w0, [sp, #24]
   81c60:	b94007e1 	ldr	w1, [sp, #4]
   81c64:	1ac02020 	lsl	w0, w1, w0
   81c68:	b94017e1 	ldr	w1, [sp, #20]
   81c6c:	2a000020 	orr	w0, w1, w0
   81c70:	b90017e0 	str	w0, [sp, #20]
   81c74:	d2bfc401 	mov	x1, #0xfe200000            	// #4263510016
   81c78:	b0000000 	adrp	x0, 82000 <uart_puts+0x1c>
   81c7c:	91390000 	add	x0, x0, #0xe40
   81c80:	b9401fe2 	ldr	w2, [sp, #28]
   81c84:	b8627800 	ldr	w0, [x0, x2, lsl #2]
   81c88:	2a0003e0 	mov	w0, w0
   81c8c:	8b000020 	add	x0, x1, x0
   81c90:	b94017e1 	ldr	w1, [sp, #20]
   81c94:	b9000001 	str	w1, [x0]
   81c98:	d503201f 	nop
   81c9c:	910083ff 	add	sp, sp, #0x20
   81ca0:	d65f03c0 	ret

0000000000081ca4 <gpio_init>:
   81ca4:	a9bf7bfd 	stp	x29, x30, [sp, #-16]!
   81ca8:	910003fd 	mov	x29, sp
   81cac:	52800060 	mov	w0, #0x3                   	// #3
   81cb0:	52800001 	mov	w1, #0x0                   	// #0
   81cb4:	2a0103e2 	mov	w2, w1
   81cb8:	2a0003e1 	mov	w1, w0
   81cbc:	52800080 	mov	w0, #0x4                   	// #4
   81cc0:	97ffff97 	bl	81b1c <setup_gpio>
   81cc4:	52800060 	mov	w0, #0x3                   	// #3
   81cc8:	52800001 	mov	w1, #0x0                   	// #0
   81ccc:	2a0103e2 	mov	w2, w1
   81cd0:	2a0003e1 	mov	w1, w0
   81cd4:	528000a0 	mov	w0, #0x5                   	// #5
   81cd8:	97ffff91 	bl	81b1c <setup_gpio>
   81cdc:	52800060 	mov	w0, #0x3                   	// #3
   81ce0:	52800001 	mov	w1, #0x0                   	// #0
   81ce4:	2a0103e2 	mov	w2, w1
   81ce8:	2a0003e1 	mov	w1, w0
   81cec:	528000c0 	mov	w0, #0x6                   	// #6
   81cf0:	97ffff8b 	bl	81b1c <setup_gpio>
   81cf4:	52800060 	mov	w0, #0x3                   	// #3
   81cf8:	52800001 	mov	w1, #0x0                   	// #0
   81cfc:	2a0103e2 	mov	w2, w1
   81d00:	2a0003e1 	mov	w1, w0
   81d04:	528000e0 	mov	w0, #0x7                   	// #7
   81d08:	97ffff85 	bl	81b1c <setup_gpio>
   81d0c:	52800080 	mov	w0, #0x4                   	// #4
   81d10:	52800001 	mov	w1, #0x0                   	// #0
   81d14:	2a0103e2 	mov	w2, w1
   81d18:	2a0003e1 	mov	w1, w0
   81d1c:	528001c0 	mov	w0, #0xe                   	// #14
   81d20:	97ffff7f 	bl	81b1c <setup_gpio>
   81d24:	52800080 	mov	w0, #0x4                   	// #4
   81d28:	52800001 	mov	w1, #0x0                   	// #0
   81d2c:	2a0103e2 	mov	w2, w1
   81d30:	2a0003e1 	mov	w1, w0
   81d34:	528001e0 	mov	w0, #0xf                   	// #15
   81d38:	97ffff79 	bl	81b1c <setup_gpio>
   81d3c:	d503201f 	nop
   81d40:	a8c17bfd 	ldp	x29, x30, [sp], #16
   81d44:	d65f03c0 	ret

0000000000081d48 <uart_config_and_enable>:
   81d48:	d10083ff 	sub	sp, sp, #0x20
   81d4c:	f90007e0 	str	x0, [sp, #8]
   81d50:	f94007e0 	ldr	x0, [sp, #8]
   81d54:	f100041f 	cmp	x0, #0x1
   81d58:	540000a0 	b.eq	81d6c <uart_config_and_enable+0x24>  // b.none
   81d5c:	f94007e0 	ldr	x0, [sp, #8]
   81d60:	f100081f 	cmp	x0, #0x2
   81d64:	540000e0 	b.eq	81d80 <uart_config_and_enable+0x38>  // b.none
   81d68:	1400004d 	b	81e9c <uart_config_and_enable+0x154>
   81d6c:	52800340 	mov	w0, #0x1a                  	// #26
   81d70:	b9001fe0 	str	w0, [sp, #28]
   81d74:	52800040 	mov	w0, #0x2                   	// #2
   81d78:	b9001be0 	str	w0, [sp, #24]
   81d7c:	14000005 	b	81d90 <uart_config_and_enable+0x48>
   81d80:	52800fa0 	mov	w0, #0x7d                  	// #125
   81d84:	b9001fe0 	str	w0, [sp, #28]
   81d88:	b9001bff 	str	wzr, [sp, #24]
   81d8c:	d503201f 	nop
   81d90:	b0000000 	adrp	x0, 82000 <uart_puts+0x1c>
   81d94:	913a4000 	add	x0, x0, #0xe90
   81d98:	f94007e1 	ldr	x1, [sp, #8]
   81d9c:	f8617801 	ldr	x1, [x0, x1, lsl #3]
   81da0:	52800600 	mov	w0, #0x30                  	// #48
   81da4:	2a0003e0 	mov	w0, w0
   81da8:	8b000020 	add	x0, x1, x0
   81dac:	b9400000 	ldr	w0, [x0]
   81db0:	b90017e0 	str	w0, [sp, #20]
   81db4:	52800020 	mov	w0, #0x1                   	// #1
   81db8:	2a2003e2 	mvn	w2, w0
   81dbc:	b0000000 	adrp	x0, 82000 <uart_puts+0x1c>
   81dc0:	913a4000 	add	x0, x0, #0xe90
   81dc4:	f94007e1 	ldr	x1, [sp, #8]
   81dc8:	f8617801 	ldr	x1, [x0, x1, lsl #3]
   81dcc:	52800600 	mov	w0, #0x30                  	// #48
   81dd0:	2a0003e0 	mov	w0, w0
   81dd4:	8b000020 	add	x0, x1, x0
   81dd8:	b94017e1 	ldr	w1, [sp, #20]
   81ddc:	0a010041 	and	w1, w2, w1
   81de0:	b9000001 	str	w1, [x0]
   81de4:	b0000000 	adrp	x0, 82000 <uart_puts+0x1c>
   81de8:	913a4000 	add	x0, x0, #0xe90
   81dec:	f94007e1 	ldr	x1, [sp, #8]
   81df0:	f8617801 	ldr	x1, [x0, x1, lsl #3]
   81df4:	52800480 	mov	w0, #0x24                  	// #36
   81df8:	2a0003e0 	mov	w0, w0
   81dfc:	8b000020 	add	x0, x1, x0
   81e00:	b9401fe1 	ldr	w1, [sp, #28]
   81e04:	b9000001 	str	w1, [x0]
   81e08:	b0000000 	adrp	x0, 82000 <uart_puts+0x1c>
   81e0c:	913a4000 	add	x0, x0, #0xe90
   81e10:	f94007e1 	ldr	x1, [sp, #8]
   81e14:	f8617801 	ldr	x1, [x0, x1, lsl #3]
   81e18:	52800500 	mov	w0, #0x28                  	// #40
   81e1c:	2a0003e0 	mov	w0, w0
   81e20:	8b000020 	add	x0, x1, x0
   81e24:	b9401be1 	ldr	w1, [sp, #24]
   81e28:	b9000001 	str	w1, [x0]
   81e2c:	52800801 	mov	w1, #0x40                  	// #64
   81e30:	52800400 	mov	w0, #0x20                  	// #32
   81e34:	2a000022 	orr	w2, w1, w0
   81e38:	52800201 	mov	w1, #0x10                  	// #16
   81e3c:	b0000000 	adrp	x0, 82000 <uart_puts+0x1c>
   81e40:	913a4000 	add	x0, x0, #0xe90
   81e44:	f94007e3 	ldr	x3, [sp, #8]
   81e48:	f8637803 	ldr	x3, [x0, x3, lsl #3]
   81e4c:	52800580 	mov	w0, #0x2c                  	// #44
   81e50:	2a0003e0 	mov	w0, w0
   81e54:	8b000060 	add	x0, x3, x0
   81e58:	2a010041 	orr	w1, w2, w1
   81e5c:	b9000001 	str	w1, [x0]
   81e60:	52800021 	mov	w1, #0x1                   	// #1
   81e64:	b94017e0 	ldr	w0, [sp, #20]
   81e68:	2a000021 	orr	w1, w1, w0
   81e6c:	52802000 	mov	w0, #0x100                 	// #256
   81e70:	2a000022 	orr	w2, w1, w0
   81e74:	52804001 	mov	w1, #0x200                 	// #512
   81e78:	b0000000 	adrp	x0, 82000 <uart_puts+0x1c>
   81e7c:	913a4000 	add	x0, x0, #0xe90
   81e80:	f94007e3 	ldr	x3, [sp, #8]
   81e84:	f8637803 	ldr	x3, [x0, x3, lsl #3]
   81e88:	52800600 	mov	w0, #0x30                  	// #48
   81e8c:	2a0003e0 	mov	w0, w0
   81e90:	8b000060 	add	x0, x3, x0
   81e94:	2a010041 	orr	w1, w2, w1
   81e98:	b9000001 	str	w1, [x0]
   81e9c:	910083ff 	add	sp, sp, #0x20
   81ea0:	d65f03c0 	ret

0000000000081ea4 <uart_getc>:
   81ea4:	d10083ff 	sub	sp, sp, #0x20
   81ea8:	f90007e0 	str	x0, [sp, #8]
   81eac:	d503201f 	nop
   81eb0:	b0000000 	adrp	x0, 82000 <uart_puts+0x1c>
   81eb4:	913a4000 	add	x0, x0, #0xe90
   81eb8:	f94007e1 	ldr	x1, [sp, #8]
   81ebc:	f8617801 	ldr	x1, [x0, x1, lsl #3]
   81ec0:	52800300 	mov	w0, #0x18                  	// #24
   81ec4:	2a0003e0 	mov	w0, w0
   81ec8:	8b000020 	add	x0, x1, x0
   81ecc:	b9400001 	ldr	w1, [x0]
   81ed0:	52800200 	mov	w0, #0x10                  	// #16
   81ed4:	0a000020 	and	w0, w1, w0
   81ed8:	7100001f 	cmp	w0, #0x0
   81edc:	54fffea1 	b.ne	81eb0 <uart_getc+0xc>  // b.any
   81ee0:	b0000000 	adrp	x0, 82000 <uart_puts+0x1c>
   81ee4:	913a4000 	add	x0, x0, #0xe90
   81ee8:	f94007e1 	ldr	x1, [sp, #8]
   81eec:	f8617801 	ldr	x1, [x0, x1, lsl #3]
   81ef0:	52800000 	mov	w0, #0x0                   	// #0
   81ef4:	2a0003e0 	mov	w0, w0
   81ef8:	8b000020 	add	x0, x1, x0
   81efc:	b9400000 	ldr	w0, [x0]
   81f00:	39007fe0 	strb	w0, [sp, #31]
   81f04:	39407fe0 	ldrb	w0, [sp, #31]
   81f08:	910083ff 	add	sp, sp, #0x20
   81f0c:	d65f03c0 	ret

0000000000081f10 <uart_putc>:
   81f10:	d10043ff 	sub	sp, sp, #0x10
   81f14:	f90007e0 	str	x0, [sp, #8]
   81f18:	39001fe1 	strb	w1, [sp, #7]
   81f1c:	d503201f 	nop
   81f20:	b0000000 	adrp	x0, 82000 <uart_puts+0x1c>
   81f24:	913a4000 	add	x0, x0, #0xe90
   81f28:	f94007e1 	ldr	x1, [sp, #8]
   81f2c:	f8617801 	ldr	x1, [x0, x1, lsl #3]
   81f30:	52800300 	mov	w0, #0x18                  	// #24
   81f34:	2a0003e0 	mov	w0, w0
   81f38:	8b000020 	add	x0, x1, x0
   81f3c:	b9400001 	ldr	w1, [x0]
   81f40:	52800400 	mov	w0, #0x20                  	// #32
   81f44:	0a000020 	and	w0, w1, w0
   81f48:	7100001f 	cmp	w0, #0x0
   81f4c:	54fffea1 	b.ne	81f20 <uart_putc+0x10>  // b.any
   81f50:	b0000000 	adrp	x0, 82000 <uart_puts+0x1c>
   81f54:	913a4000 	add	x0, x0, #0xe90
   81f58:	f94007e1 	ldr	x1, [sp, #8]
   81f5c:	f8617801 	ldr	x1, [x0, x1, lsl #3]
   81f60:	52800000 	mov	w0, #0x0                   	// #0
   81f64:	2a0003e0 	mov	w0, w0
   81f68:	8b000020 	add	x0, x1, x0
   81f6c:	39401fe1 	ldrb	w1, [sp, #7]
   81f70:	b9000001 	str	w1, [x0]
   81f74:	d503201f 	nop
   81f78:	910043ff 	add	sp, sp, #0x10
   81f7c:	d65f03c0 	ret

0000000000081f80 <uart_putl>:
   81f80:	a9bc7bfd 	stp	x29, x30, [sp, #-64]!
   81f84:	910003fd 	mov	x29, sp
   81f88:	f90017e0 	str	x0, [sp, #40]
   81f8c:	f90013e1 	str	x1, [sp, #32]
   81f90:	f9000fe2 	str	x2, [sp, #24]
   81f94:	f9001fff 	str	xzr, [sp, #56]
   81f98:	1400000b 	b	81fc4 <uart_putl+0x44>
   81f9c:	f94013e1 	ldr	x1, [sp, #32]
   81fa0:	f9401fe0 	ldr	x0, [sp, #56]
   81fa4:	8b000020 	add	x0, x1, x0
   81fa8:	39400000 	ldrb	w0, [x0]
   81fac:	2a0003e1 	mov	w1, w0
   81fb0:	f94017e0 	ldr	x0, [sp, #40]
   81fb4:	97ffffd7 	bl	81f10 <uart_putc>
   81fb8:	f9401fe0 	ldr	x0, [sp, #56]
   81fbc:	91000400 	add	x0, x0, #0x1
   81fc0:	f9001fe0 	str	x0, [sp, #56]
   81fc4:	f9401fe1 	ldr	x1, [sp, #56]
   81fc8:	f9400fe0 	ldr	x0, [sp, #24]
   81fcc:	eb00003f 	cmp	x1, x0
   81fd0:	54fffe63 	b.cc	81f9c <uart_putl+0x1c>  // b.lo, b.ul, b.last
   81fd4:	d503201f 	nop
   81fd8:	d503201f 	nop
   81fdc:	a8c47bfd 	ldp	x29, x30, [sp], #64
   81fe0:	d65f03c0 	ret

0000000000081fe4 <uart_puts>:
   81fe4:	a9be7bfd 	stp	x29, x30, [sp, #-32]!
   81fe8:	910003fd 	mov	x29, sp
   81fec:	f9000fe0 	str	x0, [sp, #24]
   81ff0:	f9000be1 	str	x1, [sp, #16]
   81ff4:	14000009 	b	82018 <uart_puts+0x34>
   81ff8:	f9400be0 	ldr	x0, [sp, #16]
   81ffc:	39400000 	ldrb	w0, [x0]
   82000:	2a0003e1 	mov	w1, w0
   82004:	f9400fe0 	ldr	x0, [sp, #24]
   82008:	97ffffc2 	bl	81f10 <uart_putc>
   8200c:	f9400be0 	ldr	x0, [sp, #16]
   82010:	91000400 	add	x0, x0, #0x1
   82014:	f9000be0 	str	x0, [sp, #16]
   82018:	f9400be0 	ldr	x0, [sp, #16]
   8201c:	39400000 	ldrb	w0, [x0]
   82020:	7100001f 	cmp	w0, #0x0
   82024:	54fffea1 	b.ne	81ff8 <uart_puts+0x14>  // b.any
   82028:	d503201f 	nop
   8202c:	d503201f 	nop
   82030:	a8c27bfd 	ldp	x29, x30, [sp], #32
   82034:	d65f03c0 	ret

0000000000082038 <uart_format_print>:
   82038:	a9bc7bfd 	stp	x29, x30, [sp, #-64]!
   8203c:	910003fd 	mov	x29, sp
   82040:	f9000bf3 	str	x19, [sp, #16]
   82044:	f90017e0 	str	x0, [sp, #40]
   82048:	f90013e1 	str	x1, [sp, #32]
   8204c:	aa0203f3 	mov	x19, x2
   82050:	14000098 	b	822b0 <uart_format_print+0x278>
   82054:	3940ffe0 	ldrb	w0, [sp, #63]
   82058:	7100941f 	cmp	w0, #0x25
   8205c:	540000a0 	b.eq	82070 <uart_format_print+0x38>  // b.none
   82060:	3940ffe1 	ldrb	w1, [sp, #63]
   82064:	f94017e0 	ldr	x0, [sp, #40]
   82068:	97ffffaa 	bl	81f10 <uart_putc>
   8206c:	14000091 	b	822b0 <uart_format_print+0x278>
   82070:	f94013e0 	ldr	x0, [sp, #32]
   82074:	91000401 	add	x1, x0, #0x1
   82078:	f90013e1 	str	x1, [sp, #32]
   8207c:	39400000 	ldrb	w0, [x0]
   82080:	3900ffe0 	strb	w0, [sp, #63]
   82084:	3940ffe0 	ldrb	w0, [sp, #63]
   82088:	7101e01f 	cmp	w0, #0x78
   8208c:	540009c0 	b.eq	821c4 <uart_format_print+0x18c>  // b.none
   82090:	7101e01f 	cmp	w0, #0x78
   82094:	540010ec 	b.gt	822b0 <uart_format_print+0x278>
   82098:	7101d41f 	cmp	w0, #0x75
   8209c:	54000200 	b.eq	820dc <uart_format_print+0xa4>  // b.none
   820a0:	7101d41f 	cmp	w0, #0x75
   820a4:	5400106c 	b.gt	822b0 <uart_format_print+0x278>
   820a8:	7101cc1f 	cmp	w0, #0x73
   820ac:	54000c80 	b.eq	8223c <uart_format_print+0x204>  // b.none
   820b0:	7101cc1f 	cmp	w0, #0x73
   820b4:	54000fec 	b.gt	822b0 <uart_format_print+0x278>
   820b8:	7101901f 	cmp	w0, #0x64
   820bc:	540004c0 	b.eq	82154 <uart_format_print+0x11c>  // b.none
   820c0:	7101901f 	cmp	w0, #0x64
   820c4:	54000f6c 	b.gt	822b0 <uart_format_print+0x278>
   820c8:	7100001f 	cmp	w0, #0x0
   820cc:	54001040 	b.eq	822d4 <uart_format_print+0x29c>  // b.none
   820d0:	7100941f 	cmp	w0, #0x25
   820d4:	54000e60 	b.eq	822a0 <uart_format_print+0x268>  // b.none
   820d8:	14000076 	b	822b0 <uart_format_print+0x278>
   820dc:	b9401a61 	ldr	w1, [x19, #24]
   820e0:	f9400260 	ldr	x0, [x19]
   820e4:	7100003f 	cmp	w1, #0x0
   820e8:	540000ab 	b.lt	820fc <uart_format_print+0xc4>  // b.tstop
   820ec:	91002c01 	add	x1, x0, #0xb
   820f0:	927df021 	and	x1, x1, #0xfffffffffffffff8
   820f4:	f9000261 	str	x1, [x19]
   820f8:	1400000d 	b	8212c <uart_format_print+0xf4>
   820fc:	11002022 	add	w2, w1, #0x8
   82100:	b9001a62 	str	w2, [x19, #24]
   82104:	b9401a62 	ldr	w2, [x19, #24]
   82108:	7100005f 	cmp	w2, #0x0
   8210c:	540000ad 	b.le	82120 <uart_format_print+0xe8>
   82110:	91002c01 	add	x1, x0, #0xb
   82114:	927df021 	and	x1, x1, #0xfffffffffffffff8
   82118:	f9000261 	str	x1, [x19]
   8211c:	14000004 	b	8212c <uart_format_print+0xf4>
   82120:	f9400662 	ldr	x2, [x19, #8]
   82124:	93407c20 	sxtw	x0, w1
   82128:	8b000040 	add	x0, x2, x0
   8212c:	b9400000 	ldr	w0, [x0]
   82130:	9100c3e1 	add	x1, sp, #0x30
   82134:	aa0103e2 	mov	x2, x1
   82138:	52800141 	mov	w1, #0xa                   	// #10
   8213c:	9400015f 	bl	826b8 <ui2a>
   82140:	9100c3e0 	add	x0, sp, #0x30
   82144:	aa0003e1 	mov	x1, x0
   82148:	f94017e0 	ldr	x0, [sp, #40]
   8214c:	97ffffa6 	bl	81fe4 <uart_puts>
   82150:	14000058 	b	822b0 <uart_format_print+0x278>
   82154:	b9401a61 	ldr	w1, [x19, #24]
   82158:	f9400260 	ldr	x0, [x19]
   8215c:	7100003f 	cmp	w1, #0x0
   82160:	540000ab 	b.lt	82174 <uart_format_print+0x13c>  // b.tstop
   82164:	91002c01 	add	x1, x0, #0xb
   82168:	927df021 	and	x1, x1, #0xfffffffffffffff8
   8216c:	f9000261 	str	x1, [x19]
   82170:	1400000d 	b	821a4 <uart_format_print+0x16c>
   82174:	11002022 	add	w2, w1, #0x8
   82178:	b9001a62 	str	w2, [x19, #24]
   8217c:	b9401a62 	ldr	w2, [x19, #24]
   82180:	7100005f 	cmp	w2, #0x0
   82184:	540000ad 	b.le	82198 <uart_format_print+0x160>
   82188:	91002c01 	add	x1, x0, #0xb
   8218c:	927df021 	and	x1, x1, #0xfffffffffffffff8
   82190:	f9000261 	str	x1, [x19]
   82194:	14000004 	b	821a4 <uart_format_print+0x16c>
   82198:	f9400662 	ldr	x2, [x19, #8]
   8219c:	93407c20 	sxtw	x0, w1
   821a0:	8b000040 	add	x0, x2, x0
   821a4:	b9400000 	ldr	w0, [x0]
   821a8:	9100c3e1 	add	x1, sp, #0x30
   821ac:	94000187 	bl	827c8 <i2a>
   821b0:	9100c3e0 	add	x0, sp, #0x30
   821b4:	aa0003e1 	mov	x1, x0
   821b8:	f94017e0 	ldr	x0, [sp, #40]
   821bc:	97ffff8a 	bl	81fe4 <uart_puts>
   821c0:	1400003c 	b	822b0 <uart_format_print+0x278>
   821c4:	b9401a61 	ldr	w1, [x19, #24]
   821c8:	f9400260 	ldr	x0, [x19]
   821cc:	7100003f 	cmp	w1, #0x0
   821d0:	540000ab 	b.lt	821e4 <uart_format_print+0x1ac>  // b.tstop
   821d4:	91002c01 	add	x1, x0, #0xb
   821d8:	927df021 	and	x1, x1, #0xfffffffffffffff8
   821dc:	f9000261 	str	x1, [x19]
   821e0:	1400000d 	b	82214 <uart_format_print+0x1dc>
   821e4:	11002022 	add	w2, w1, #0x8
   821e8:	b9001a62 	str	w2, [x19, #24]
   821ec:	b9401a62 	ldr	w2, [x19, #24]
   821f0:	7100005f 	cmp	w2, #0x0
   821f4:	540000ad 	b.le	82208 <uart_format_print+0x1d0>
   821f8:	91002c01 	add	x1, x0, #0xb
   821fc:	927df021 	and	x1, x1, #0xfffffffffffffff8
   82200:	f9000261 	str	x1, [x19]
   82204:	14000004 	b	82214 <uart_format_print+0x1dc>
   82208:	f9400662 	ldr	x2, [x19, #8]
   8220c:	93407c20 	sxtw	x0, w1
   82210:	8b000040 	add	x0, x2, x0
   82214:	b9400000 	ldr	w0, [x0]
   82218:	9100c3e1 	add	x1, sp, #0x30
   8221c:	aa0103e2 	mov	x2, x1
   82220:	52800201 	mov	w1, #0x10                  	// #16
   82224:	94000125 	bl	826b8 <ui2a>
   82228:	9100c3e0 	add	x0, sp, #0x30
   8222c:	aa0003e1 	mov	x1, x0
   82230:	f94017e0 	ldr	x0, [sp, #40]
   82234:	97ffff6c 	bl	81fe4 <uart_puts>
   82238:	1400001e 	b	822b0 <uart_format_print+0x278>
   8223c:	b9401a61 	ldr	w1, [x19, #24]
   82240:	f9400260 	ldr	x0, [x19]
   82244:	7100003f 	cmp	w1, #0x0
   82248:	540000ab 	b.lt	8225c <uart_format_print+0x224>  // b.tstop
   8224c:	91003c01 	add	x1, x0, #0xf
   82250:	927df021 	and	x1, x1, #0xfffffffffffffff8
   82254:	f9000261 	str	x1, [x19]
   82258:	1400000d 	b	8228c <uart_format_print+0x254>
   8225c:	11002022 	add	w2, w1, #0x8
   82260:	b9001a62 	str	w2, [x19, #24]
   82264:	b9401a62 	ldr	w2, [x19, #24]
   82268:	7100005f 	cmp	w2, #0x0
   8226c:	540000ad 	b.le	82280 <uart_format_print+0x248>
   82270:	91003c01 	add	x1, x0, #0xf
   82274:	927df021 	and	x1, x1, #0xfffffffffffffff8
   82278:	f9000261 	str	x1, [x19]
   8227c:	14000004 	b	8228c <uart_format_print+0x254>
   82280:	f9400662 	ldr	x2, [x19, #8]
   82284:	93407c20 	sxtw	x0, w1
   82288:	8b000040 	add	x0, x2, x0
   8228c:	f9400000 	ldr	x0, [x0]
   82290:	aa0003e1 	mov	x1, x0
   82294:	f94017e0 	ldr	x0, [sp, #40]
   82298:	97ffff53 	bl	81fe4 <uart_puts>
   8229c:	14000005 	b	822b0 <uart_format_print+0x278>
   822a0:	3940ffe1 	ldrb	w1, [sp, #63]
   822a4:	f94017e0 	ldr	x0, [sp, #40]
   822a8:	97ffff1a 	bl	81f10 <uart_putc>
   822ac:	d503201f 	nop
   822b0:	f94013e0 	ldr	x0, [sp, #32]
   822b4:	91000401 	add	x1, x0, #0x1
   822b8:	f90013e1 	str	x1, [sp, #32]
   822bc:	39400000 	ldrb	w0, [x0]
   822c0:	3900ffe0 	strb	w0, [sp, #63]
   822c4:	3940ffe0 	ldrb	w0, [sp, #63]
   822c8:	7100001f 	cmp	w0, #0x0
   822cc:	54ffec41 	b.ne	82054 <uart_format_print+0x1c>  // b.any
   822d0:	14000002 	b	822d8 <uart_format_print+0x2a0>
   822d4:	d503201f 	nop
   822d8:	f9400bf3 	ldr	x19, [sp, #16]
   822dc:	a8c47bfd 	ldp	x29, x30, [sp], #64
   822e0:	d65f03c0 	ret

00000000000822e4 <uart_printf>:
   822e4:	a9b77bfd 	stp	x29, x30, [sp, #-144]!
   822e8:	910003fd 	mov	x29, sp
   822ec:	f9001fe0 	str	x0, [sp, #56]
   822f0:	f9001be1 	str	x1, [sp, #48]
   822f4:	f90033e2 	str	x2, [sp, #96]
   822f8:	f90037e3 	str	x3, [sp, #104]
   822fc:	f9003be4 	str	x4, [sp, #112]
   82300:	f9003fe5 	str	x5, [sp, #120]
   82304:	f90043e6 	str	x6, [sp, #128]
   82308:	f90047e7 	str	x7, [sp, #136]
   8230c:	910243e0 	add	x0, sp, #0x90
   82310:	f90023e0 	str	x0, [sp, #64]
   82314:	910243e0 	add	x0, sp, #0x90
   82318:	f90027e0 	str	x0, [sp, #72]
   8231c:	910183e0 	add	x0, sp, #0x60
   82320:	f9002be0 	str	x0, [sp, #80]
   82324:	128005e0 	mov	w0, #0xffffffd0            	// #-48
   82328:	b9005be0 	str	w0, [sp, #88]
   8232c:	b9005fff 	str	wzr, [sp, #92]
   82330:	a94407e0 	ldp	x0, x1, [sp, #64]
   82334:	a90107e0 	stp	x0, x1, [sp, #16]
   82338:	a94507e0 	ldp	x0, x1, [sp, #80]
   8233c:	a90207e0 	stp	x0, x1, [sp, #32]
   82340:	910043e0 	add	x0, sp, #0x10
   82344:	aa0003e2 	mov	x2, x0
   82348:	f9401be1 	ldr	x1, [sp, #48]
   8234c:	f9401fe0 	ldr	x0, [sp, #56]
   82350:	97ffff3a 	bl	82038 <uart_format_print>
   82354:	d503201f 	nop
   82358:	a8c97bfd 	ldp	x29, x30, [sp], #144
   8235c:	d65f03c0 	ret

0000000000082360 <uart_dprintf>:
   82360:	a9b77bfd 	stp	x29, x30, [sp, #-144]!
   82364:	910003fd 	mov	x29, sp
   82368:	f9001fe0 	str	x0, [sp, #56]
   8236c:	f9001be1 	str	x1, [sp, #48]
   82370:	f90033e2 	str	x2, [sp, #96]
   82374:	f90037e3 	str	x3, [sp, #104]
   82378:	f9003be4 	str	x4, [sp, #112]
   8237c:	f9003fe5 	str	x5, [sp, #120]
   82380:	f90043e6 	str	x6, [sp, #128]
   82384:	f90047e7 	str	x7, [sp, #136]
   82388:	910243e0 	add	x0, sp, #0x90
   8238c:	f90023e0 	str	x0, [sp, #64]
   82390:	910243e0 	add	x0, sp, #0x90
   82394:	f90027e0 	str	x0, [sp, #72]
   82398:	910183e0 	add	x0, sp, #0x60
   8239c:	f9002be0 	str	x0, [sp, #80]
   823a0:	128005e0 	mov	w0, #0xffffffd0            	// #-48
   823a4:	b9005be0 	str	w0, [sp, #88]
   823a8:	b9005fff 	str	wzr, [sp, #92]
   823ac:	a94407e0 	ldp	x0, x1, [sp, #64]
   823b0:	a90107e0 	stp	x0, x1, [sp, #16]
   823b4:	a94507e0 	ldp	x0, x1, [sp, #80]
   823b8:	a90207e0 	stp	x0, x1, [sp, #32]
   823bc:	910043e0 	add	x0, sp, #0x10
   823c0:	aa0003e2 	mov	x2, x0
   823c4:	f9401be1 	ldr	x1, [sp, #48]
   823c8:	f9401fe0 	ldr	x0, [sp, #56]
   823cc:	97ffff1b 	bl	82038 <uart_format_print>
   823d0:	d503201f 	nop
   823d4:	a8c97bfd 	ldp	x29, x30, [sp], #144
   823d8:	d65f03c0 	ret

00000000000823dc <tasks_init>:
   823dc:	d100c3ff 	sub	sp, sp, #0x30
   823e0:	f9000fe0 	str	x0, [sp, #24]
   823e4:	f9000be1 	str	x1, [sp, #16]
   823e8:	f90007e2 	str	x2, [sp, #8]
   823ec:	f90003e3 	str	x3, [sp]
   823f0:	90000000 	adrp	x0, 82000 <uart_puts+0x1c>
   823f4:	913c8000 	add	x0, x0, #0xf20
   823f8:	f9400fe1 	ldr	x1, [sp, #24]
   823fc:	f9000001 	str	x1, [x0]
   82400:	f90017ff 	str	xzr, [sp, #40]
   82404:	1400003b 	b	824f0 <tasks_init+0x114>
   82408:	f94003e0 	ldr	x0, [sp]
   8240c:	d1000400 	sub	x0, x0, #0x1
   82410:	f94017e1 	ldr	x1, [sp, #40]
   82414:	eb00003f 	cmp	x1, x0
   82418:	54000302 	b.cs	82478 <tasks_init+0x9c>  // b.hs, b.nlast
   8241c:	f94017e0 	ldr	x0, [sp, #40]
   82420:	91000401 	add	x1, x0, #0x1
   82424:	aa0103e0 	mov	x0, x1
   82428:	d37df000 	lsl	x0, x0, #3
   8242c:	8b010000 	add	x0, x0, x1
   82430:	d37ef400 	lsl	x0, x0, #2
   82434:	8b010000 	add	x0, x0, x1
   82438:	d37df000 	lsl	x0, x0, #3
   8243c:	aa0003e2 	mov	x2, x0
   82440:	f94017e1 	ldr	x1, [sp, #40]
   82444:	aa0103e0 	mov	x0, x1
   82448:	d37df000 	lsl	x0, x0, #3
   8244c:	8b010000 	add	x0, x0, x1
   82450:	d37ef400 	lsl	x0, x0, #2
   82454:	8b010000 	add	x0, x0, x1
   82458:	d37df000 	lsl	x0, x0, #3
   8245c:	aa0003e1 	mov	x1, x0
   82460:	f9400fe0 	ldr	x0, [sp, #24]
   82464:	8b010000 	add	x0, x0, x1
   82468:	f9400fe1 	ldr	x1, [sp, #24]
   8246c:	8b020021 	add	x1, x1, x2
   82470:	f9009001 	str	x1, [x0, #288]
   82474:	1400000c 	b	824a4 <tasks_init+0xc8>
   82478:	f94017e1 	ldr	x1, [sp, #40]
   8247c:	aa0103e0 	mov	x0, x1
   82480:	d37df000 	lsl	x0, x0, #3
   82484:	8b010000 	add	x0, x0, x1
   82488:	d37ef400 	lsl	x0, x0, #2
   8248c:	8b010000 	add	x0, x0, x1
   82490:	d37df000 	lsl	x0, x0, #3
   82494:	aa0003e1 	mov	x1, x0
   82498:	f9400fe0 	ldr	x0, [sp, #24]
   8249c:	8b010000 	add	x0, x0, x1
   824a0:	f900901f 	str	xzr, [x0, #288]
   824a4:	f94017e1 	ldr	x1, [sp, #40]
   824a8:	f94007e0 	ldr	x0, [sp, #8]
   824ac:	9b007c22 	mul	x2, x1, x0
   824b0:	f94017e1 	ldr	x1, [sp, #40]
   824b4:	aa0103e0 	mov	x0, x1
   824b8:	d37df000 	lsl	x0, x0, #3
   824bc:	8b010000 	add	x0, x0, x1
   824c0:	d37ef400 	lsl	x0, x0, #2
   824c4:	8b010000 	add	x0, x0, x1
   824c8:	d37df000 	lsl	x0, x0, #3
   824cc:	aa0003e1 	mov	x1, x0
   824d0:	f9400fe0 	ldr	x0, [sp, #24]
   824d4:	8b010000 	add	x0, x0, x1
   824d8:	f9400be1 	ldr	x1, [sp, #16]
   824dc:	8b010041 	add	x1, x2, x1
   824e0:	f9007c01 	str	x1, [x0, #248]
   824e4:	f94017e0 	ldr	x0, [sp, #40]
   824e8:	91000400 	add	x0, x0, #0x1
   824ec:	f90017e0 	str	x0, [sp, #40]
   824f0:	f94017e1 	ldr	x1, [sp, #40]
   824f4:	f94003e0 	ldr	x0, [sp]
   824f8:	eb00003f 	cmp	x1, x0
   824fc:	54fff863 	b.cc	82408 <tasks_init+0x2c>  // b.lo, b.ul, b.last
   82500:	d503201f 	nop
   82504:	d503201f 	nop
   82508:	9100c3ff 	add	sp, sp, #0x30
   8250c:	d65f03c0 	ret

0000000000082510 <task_cmp>:
   82510:	d10043ff 	sub	sp, sp, #0x10
   82514:	f90007e0 	str	x0, [sp, #8]
   82518:	f90003e1 	str	x1, [sp]
   8251c:	f94007e0 	ldr	x0, [sp, #8]
   82520:	b9411c01 	ldr	w1, [x0, #284]
   82524:	f94003e0 	ldr	x0, [sp]
   82528:	b9411c00 	ldr	w0, [x0, #284]
   8252c:	6b00003f 	cmp	w1, w0
   82530:	54000062 	b.cs	8253c <task_cmp+0x2c>  // b.hs, b.nlast
   82534:	12800000 	mov	w0, #0xffffffff            	// #-1
   82538:	1400001a 	b	825a0 <task_cmp+0x90>
   8253c:	f94007e0 	ldr	x0, [sp, #8]
   82540:	b9411c01 	ldr	w1, [x0, #284]
   82544:	f94003e0 	ldr	x0, [sp]
   82548:	b9411c00 	ldr	w0, [x0, #284]
   8254c:	6b00003f 	cmp	w1, w0
   82550:	54000069 	b.ls	8255c <task_cmp+0x4c>  // b.plast
   82554:	52800020 	mov	w0, #0x1                   	// #1
   82558:	14000012 	b	825a0 <task_cmp+0x90>
   8255c:	f94007e0 	ldr	x0, [sp, #8]
   82560:	b9411801 	ldr	w1, [x0, #280]
   82564:	f94003e0 	ldr	x0, [sp]
   82568:	b9411800 	ldr	w0, [x0, #280]
   8256c:	6b00003f 	cmp	w1, w0
   82570:	54000062 	b.cs	8257c <task_cmp+0x6c>  // b.hs, b.nlast
   82574:	12800000 	mov	w0, #0xffffffff            	// #-1
   82578:	1400000a 	b	825a0 <task_cmp+0x90>
   8257c:	f94007e0 	ldr	x0, [sp, #8]
   82580:	b9411801 	ldr	w1, [x0, #280]
   82584:	f94003e0 	ldr	x0, [sp]
   82588:	b9411800 	ldr	w0, [x0, #280]
   8258c:	6b00003f 	cmp	w1, w0
   82590:	54000069 	b.ls	8259c <task_cmp+0x8c>  // b.plast
   82594:	52800020 	mov	w0, #0x1                   	// #1
   82598:	14000002 	b	825a0 <task_cmp+0x90>
   8259c:	52800000 	mov	w0, #0x0                   	// #0
   825a0:	910043ff 	add	sp, sp, #0x10
   825a4:	d65f03c0 	ret

00000000000825a8 <getNextFreeTaskFrame>:
   825a8:	d10043ff 	sub	sp, sp, #0x10
   825ac:	90000000 	adrp	x0, 82000 <uart_puts+0x1c>
   825b0:	913c8000 	add	x0, x0, #0xf20
   825b4:	f9400000 	ldr	x0, [x0]
   825b8:	f100001f 	cmp	x0, #0x0
   825bc:	54000061 	b.ne	825c8 <getNextFreeTaskFrame+0x20>  // b.any
   825c0:	d2800000 	mov	x0, #0x0                   	// #0
   825c4:	1400000d 	b	825f8 <getNextFreeTaskFrame+0x50>
   825c8:	90000000 	adrp	x0, 82000 <uart_puts+0x1c>
   825cc:	913c8000 	add	x0, x0, #0xf20
   825d0:	f9400000 	ldr	x0, [x0]
   825d4:	f90007e0 	str	x0, [sp, #8]
   825d8:	90000000 	adrp	x0, 82000 <uart_puts+0x1c>
   825dc:	913c8000 	add	x0, x0, #0xf20
   825e0:	f9400000 	ldr	x0, [x0]
   825e4:	f9409001 	ldr	x1, [x0, #288]
   825e8:	90000000 	adrp	x0, 82000 <uart_puts+0x1c>
   825ec:	913c8000 	add	x0, x0, #0xf20
   825f0:	f9000001 	str	x1, [x0]
   825f4:	f94007e0 	ldr	x0, [sp, #8]
   825f8:	910043ff 	add	sp, sp, #0x10
   825fc:	d65f03c0 	ret

0000000000082600 <reclaimTaskFrame>:
   82600:	d10043ff 	sub	sp, sp, #0x10
   82604:	f90007e0 	str	x0, [sp, #8]
   82608:	90000000 	adrp	x0, 82000 <uart_puts+0x1c>
   8260c:	913c8000 	add	x0, x0, #0xf20
   82610:	f9400001 	ldr	x1, [x0]
   82614:	f94007e0 	ldr	x0, [sp, #8]
   82618:	f9009001 	str	x1, [x0, #288]
   8261c:	90000000 	adrp	x0, 82000 <uart_puts+0x1c>
   82620:	913c8000 	add	x0, x0, #0xf20
   82624:	f94007e1 	ldr	x1, [sp, #8]
   82628:	f9000001 	str	x1, [x0]
   8262c:	d503201f 	nop
   82630:	910043ff 	add	sp, sp, #0x10
   82634:	d65f03c0 	ret

0000000000082638 <a2d>:
   82638:	d10043ff 	sub	sp, sp, #0x10
   8263c:	39003fe0 	strb	w0, [sp, #15]
   82640:	39403fe0 	ldrb	w0, [sp, #15]
   82644:	7100bc1f 	cmp	w0, #0x2f
   82648:	540000e9 	b.ls	82664 <a2d+0x2c>  // b.plast
   8264c:	39403fe0 	ldrb	w0, [sp, #15]
   82650:	7100e41f 	cmp	w0, #0x39
   82654:	54000088 	b.hi	82664 <a2d+0x2c>  // b.pmore
   82658:	39403fe0 	ldrb	w0, [sp, #15]
   8265c:	5100c000 	sub	w0, w0, #0x30
   82660:	14000014 	b	826b0 <a2d+0x78>
   82664:	39403fe0 	ldrb	w0, [sp, #15]
   82668:	7101801f 	cmp	w0, #0x60
   8266c:	540000e9 	b.ls	82688 <a2d+0x50>  // b.plast
   82670:	39403fe0 	ldrb	w0, [sp, #15]
   82674:	7101981f 	cmp	w0, #0x66
   82678:	54000088 	b.hi	82688 <a2d+0x50>  // b.pmore
   8267c:	39403fe0 	ldrb	w0, [sp, #15]
   82680:	51015c00 	sub	w0, w0, #0x57
   82684:	1400000b 	b	826b0 <a2d+0x78>
   82688:	39403fe0 	ldrb	w0, [sp, #15]
   8268c:	7101001f 	cmp	w0, #0x40
   82690:	540000e9 	b.ls	826ac <a2d+0x74>  // b.plast
   82694:	39403fe0 	ldrb	w0, [sp, #15]
   82698:	7101181f 	cmp	w0, #0x46
   8269c:	54000088 	b.hi	826ac <a2d+0x74>  // b.pmore
   826a0:	39403fe0 	ldrb	w0, [sp, #15]
   826a4:	5100dc00 	sub	w0, w0, #0x37
   826a8:	14000002 	b	826b0 <a2d+0x78>
   826ac:	12800000 	mov	w0, #0xffffffff            	// #-1
   826b0:	910043ff 	add	sp, sp, #0x10
   826b4:	d65f03c0 	ret

00000000000826b8 <ui2a>:
   826b8:	d10083ff 	sub	sp, sp, #0x20
   826bc:	b9000fe0 	str	w0, [sp, #12]
   826c0:	b9000be1 	str	w1, [sp, #8]
   826c4:	f90003e2 	str	x2, [sp]
   826c8:	b9001fff 	str	wzr, [sp, #28]
   826cc:	52800020 	mov	w0, #0x1                   	// #1
   826d0:	b9001be0 	str	w0, [sp, #24]
   826d4:	14000005 	b	826e8 <ui2a+0x30>
   826d8:	b9401be1 	ldr	w1, [sp, #24]
   826dc:	b9400be0 	ldr	w0, [sp, #8]
   826e0:	1b007c20 	mul	w0, w1, w0
   826e4:	b9001be0 	str	w0, [sp, #24]
   826e8:	b9400fe1 	ldr	w1, [sp, #12]
   826ec:	b9401be0 	ldr	w0, [sp, #24]
   826f0:	1ac00820 	udiv	w0, w1, w0
   826f4:	b9400be1 	ldr	w1, [sp, #8]
   826f8:	6b00003f 	cmp	w1, w0
   826fc:	54fffee9 	b.ls	826d8 <ui2a+0x20>  // b.plast
   82700:	1400002a 	b	827a8 <ui2a+0xf0>
   82704:	b9400fe1 	ldr	w1, [sp, #12]
   82708:	b9401be0 	ldr	w0, [sp, #24]
   8270c:	1ac00820 	udiv	w0, w1, w0
   82710:	b90017e0 	str	w0, [sp, #20]
   82714:	b9400fe0 	ldr	w0, [sp, #12]
   82718:	b9401be1 	ldr	w1, [sp, #24]
   8271c:	1ac10802 	udiv	w2, w0, w1
   82720:	b9401be1 	ldr	w1, [sp, #24]
   82724:	1b017c41 	mul	w1, w2, w1
   82728:	4b010000 	sub	w0, w0, w1
   8272c:	b9000fe0 	str	w0, [sp, #12]
   82730:	b9401be1 	ldr	w1, [sp, #24]
   82734:	b9400be0 	ldr	w0, [sp, #8]
   82738:	1ac00820 	udiv	w0, w1, w0
   8273c:	b9001be0 	str	w0, [sp, #24]
   82740:	b9401fe0 	ldr	w0, [sp, #28]
   82744:	7100001f 	cmp	w0, #0x0
   82748:	540000e1 	b.ne	82764 <ui2a+0xac>  // b.any
   8274c:	b94017e0 	ldr	w0, [sp, #20]
   82750:	7100001f 	cmp	w0, #0x0
   82754:	5400008c 	b.gt	82764 <ui2a+0xac>
   82758:	b9401be0 	ldr	w0, [sp, #24]
   8275c:	7100001f 	cmp	w0, #0x0
   82760:	54000241 	b.ne	827a8 <ui2a+0xf0>  // b.any
   82764:	b94017e0 	ldr	w0, [sp, #20]
   82768:	7100241f 	cmp	w0, #0x9
   8276c:	5400006c 	b.gt	82778 <ui2a+0xc0>
   82770:	52800601 	mov	w1, #0x30                  	// #48
   82774:	14000002 	b	8277c <ui2a+0xc4>
   82778:	52800ae1 	mov	w1, #0x57                  	// #87
   8277c:	b94017e0 	ldr	w0, [sp, #20]
   82780:	12001c02 	and	w2, w0, #0xff
   82784:	f94003e0 	ldr	x0, [sp]
   82788:	91000403 	add	x3, x0, #0x1
   8278c:	f90003e3 	str	x3, [sp]
   82790:	0b020021 	add	w1, w1, w2
   82794:	12001c21 	and	w1, w1, #0xff
   82798:	39000001 	strb	w1, [x0]
   8279c:	b9401fe0 	ldr	w0, [sp, #28]
   827a0:	11000400 	add	w0, w0, #0x1
   827a4:	b9001fe0 	str	w0, [sp, #28]
   827a8:	b9401be0 	ldr	w0, [sp, #24]
   827ac:	7100001f 	cmp	w0, #0x0
   827b0:	54fffaa1 	b.ne	82704 <ui2a+0x4c>  // b.any
   827b4:	f94003e0 	ldr	x0, [sp]
   827b8:	3900001f 	strb	wzr, [x0]
   827bc:	d503201f 	nop
   827c0:	910083ff 	add	sp, sp, #0x20
   827c4:	d65f03c0 	ret

00000000000827c8 <i2a>:
   827c8:	a9be7bfd 	stp	x29, x30, [sp, #-32]!
   827cc:	910003fd 	mov	x29, sp
   827d0:	b9001fe0 	str	w0, [sp, #28]
   827d4:	f9000be1 	str	x1, [sp, #16]
   827d8:	b9401fe0 	ldr	w0, [sp, #28]
   827dc:	7100001f 	cmp	w0, #0x0
   827e0:	5400012a 	b.ge	82804 <i2a+0x3c>  // b.tcont
   827e4:	b9401fe0 	ldr	w0, [sp, #28]
   827e8:	4b0003e0 	neg	w0, w0
   827ec:	b9001fe0 	str	w0, [sp, #28]
   827f0:	f9400be0 	ldr	x0, [sp, #16]
   827f4:	91000401 	add	x1, x0, #0x1
   827f8:	f9000be1 	str	x1, [sp, #16]
   827fc:	528005a1 	mov	w1, #0x2d                  	// #45
   82800:	39000001 	strb	w1, [x0]
   82804:	b9401fe0 	ldr	w0, [sp, #28]
   82808:	f9400be2 	ldr	x2, [sp, #16]
   8280c:	52800141 	mov	w1, #0xa                   	// #10
   82810:	97ffffaa 	bl	826b8 <ui2a>
   82814:	d503201f 	nop
   82818:	a8c27bfd 	ldp	x29, x30, [sp], #32
   8281c:	d65f03c0 	ret

0000000000082820 <memset>:
   82820:	d100c3ff 	sub	sp, sp, #0x30
   82824:	f9000fe0 	str	x0, [sp, #24]
   82828:	b90017e1 	str	w1, [sp, #20]
   8282c:	f90007e2 	str	x2, [sp, #8]
   82830:	f9400fe0 	ldr	x0, [sp, #24]
   82834:	f90017e0 	str	x0, [sp, #40]
   82838:	1400000a 	b	82860 <memset+0x40>
   8283c:	f94017e0 	ldr	x0, [sp, #40]
   82840:	91000401 	add	x1, x0, #0x1
   82844:	f90017e1 	str	x1, [sp, #40]
   82848:	b94017e1 	ldr	w1, [sp, #20]
   8284c:	12001c21 	and	w1, w1, #0xff
   82850:	39000001 	strb	w1, [x0]
   82854:	f94007e0 	ldr	x0, [sp, #8]
   82858:	d1000400 	sub	x0, x0, #0x1
   8285c:	f90007e0 	str	x0, [sp, #8]
   82860:	f94007e0 	ldr	x0, [sp, #8]
   82864:	f100001f 	cmp	x0, #0x0
   82868:	54fffea1 	b.ne	8283c <memset+0x1c>  // b.any
   8286c:	f9400fe0 	ldr	x0, [sp, #24]
   82870:	9100c3ff 	add	sp, sp, #0x30
   82874:	d65f03c0 	ret

0000000000082878 <memcpy>:
   82878:	d10103ff 	sub	sp, sp, #0x40
   8287c:	f9000fe0 	str	x0, [sp, #24]
   82880:	f9000be1 	str	x1, [sp, #16]
   82884:	f90007e2 	str	x2, [sp, #8]
   82888:	f9400be0 	ldr	x0, [sp, #16]
   8288c:	f9001fe0 	str	x0, [sp, #56]
   82890:	f9400fe0 	ldr	x0, [sp, #24]
   82894:	f9001be0 	str	x0, [sp, #48]
   82898:	f90017ff 	str	xzr, [sp, #40]
   8289c:	1400000c 	b	828cc <memcpy+0x54>
   828a0:	f9401fe1 	ldr	x1, [sp, #56]
   828a4:	91000420 	add	x0, x1, #0x1
   828a8:	f9001fe0 	str	x0, [sp, #56]
   828ac:	f9401be0 	ldr	x0, [sp, #48]
   828b0:	91000402 	add	x2, x0, #0x1
   828b4:	f9001be2 	str	x2, [sp, #48]
   828b8:	39400021 	ldrb	w1, [x1]
   828bc:	39000001 	strb	w1, [x0]
   828c0:	f94017e0 	ldr	x0, [sp, #40]
   828c4:	91000400 	add	x0, x0, #0x1
   828c8:	f90017e0 	str	x0, [sp, #40]
   828cc:	f94017e1 	ldr	x1, [sp, #40]
   828d0:	f94007e0 	ldr	x0, [sp, #8]
   828d4:	eb00003f 	cmp	x1, x0
   828d8:	54fffe43 	b.cc	828a0 <memcpy+0x28>  // b.lo, b.ul, b.last
   828dc:	f9400fe0 	ldr	x0, [sp, #24]
   828e0:	910103ff 	add	sp, sp, #0x40
   828e4:	d65f03c0 	ret

00000000000828e8 <get_el>:
   828e8:	d5384240 	mrs	x0, currentel
   828ec:	d342fc00 	lsr	x0, x0, #2
   828f0:	d65f03c0 	ret
   828f4:	00000000 	udf	#0

00000000000828f8 <context_switch_to_task>:
   828f8:	580019cb 	ldr	x11, 82c30 <return_to_kernel+0x1a0>
   828fc:	f940016b 	ldr	x11, [x11]
   82900:	f9000160 	str	x0, [x11]
   82904:	f9000561 	str	x1, [x11, #8]
   82908:	f9000962 	str	x2, [x11, #16]
   8290c:	f9000d63 	str	x3, [x11, #24]
   82910:	f9001164 	str	x4, [x11, #32]
   82914:	f9001565 	str	x5, [x11, #40]
   82918:	f9001966 	str	x6, [x11, #48]
   8291c:	f9001d67 	str	x7, [x11, #56]
   82920:	f9002168 	str	x8, [x11, #64]
   82924:	f9002569 	str	x9, [x11, #72]
   82928:	f900296a 	str	x10, [x11, #80]
   8292c:	f900316c 	str	x12, [x11, #96]
   82930:	f900356d 	str	x13, [x11, #104]
   82934:	f900396e 	str	x14, [x11, #112]
   82938:	f9003d6f 	str	x15, [x11, #120]
   8293c:	f9004170 	str	x16, [x11, #128]
   82940:	f9004571 	str	x17, [x11, #136]
   82944:	f9004972 	str	x18, [x11, #144]
   82948:	f9004d73 	str	x19, [x11, #152]
   8294c:	f9005174 	str	x20, [x11, #160]
   82950:	f9005575 	str	x21, [x11, #168]
   82954:	f9005976 	str	x22, [x11, #176]
   82958:	f9005d77 	str	x23, [x11, #184]
   8295c:	f9006178 	str	x24, [x11, #192]
   82960:	f9006579 	str	x25, [x11, #200]
   82964:	f900697a 	str	x26, [x11, #208]
   82968:	f9006d7b 	str	x27, [x11, #216]
   8296c:	f900717c 	str	x28, [x11, #224]
   82970:	f900757d 	str	x29, [x11, #232]
   82974:	f900797e 	str	x30, [x11, #240]
   82978:	910003e0 	mov	x0, sp
   8297c:	f9007d60 	str	x0, [x11, #248]
   82980:	580015cb 	ldr	x11, 82c38 <return_to_kernel+0x1a8>
   82984:	f940016b 	ldr	x11, [x11]
   82988:	f9400560 	ldr	x0, [x11, #8]
   8298c:	aa0003e1 	mov	x1, x0
   82990:	f9400960 	ldr	x0, [x11, #16]
   82994:	aa0003e2 	mov	x2, x0
   82998:	f9400d60 	ldr	x0, [x11, #24]
   8299c:	aa0003e3 	mov	x3, x0
   829a0:	f9401160 	ldr	x0, [x11, #32]
   829a4:	aa0003e4 	mov	x4, x0
   829a8:	f9401560 	ldr	x0, [x11, #40]
   829ac:	aa0003e5 	mov	x5, x0
   829b0:	f9401960 	ldr	x0, [x11, #48]
   829b4:	aa0003e6 	mov	x6, x0
   829b8:	f9401d60 	ldr	x0, [x11, #56]
   829bc:	aa0003e7 	mov	x7, x0
   829c0:	f9402160 	ldr	x0, [x11, #64]
   829c4:	aa0003e8 	mov	x8, x0
   829c8:	f9402960 	ldr	x0, [x11, #80]
   829cc:	aa0003ea 	mov	x10, x0
   829d0:	f9403160 	ldr	x0, [x11, #96]
   829d4:	aa0003ec 	mov	x12, x0
   829d8:	f9403560 	ldr	x0, [x11, #104]
   829dc:	aa0003ed 	mov	x13, x0
   829e0:	f9403960 	ldr	x0, [x11, #112]
   829e4:	aa0003ee 	mov	x14, x0
   829e8:	f9403d60 	ldr	x0, [x11, #120]
   829ec:	aa0003ef 	mov	x15, x0
   829f0:	f9404160 	ldr	x0, [x11, #128]
   829f4:	aa0003f0 	mov	x16, x0
   829f8:	f9404560 	ldr	x0, [x11, #136]
   829fc:	aa0003f1 	mov	x17, x0
   82a00:	f9404960 	ldr	x0, [x11, #144]
   82a04:	aa0003f2 	mov	x18, x0
   82a08:	f9404d60 	ldr	x0, [x11, #152]
   82a0c:	aa0003f3 	mov	x19, x0
   82a10:	f9405160 	ldr	x0, [x11, #160]
   82a14:	aa0003f4 	mov	x20, x0
   82a18:	f9405560 	ldr	x0, [x11, #168]
   82a1c:	aa0003f5 	mov	x21, x0
   82a20:	f9405960 	ldr	x0, [x11, #176]
   82a24:	aa0003f6 	mov	x22, x0
   82a28:	f9405d60 	ldr	x0, [x11, #184]
   82a2c:	aa0003f7 	mov	x23, x0
   82a30:	f9406160 	ldr	x0, [x11, #192]
   82a34:	aa0003f8 	mov	x24, x0
   82a38:	f9406560 	ldr	x0, [x11, #200]
   82a3c:	aa0003f9 	mov	x25, x0
   82a40:	f9406960 	ldr	x0, [x11, #208]
   82a44:	aa0003fa 	mov	x26, x0
   82a48:	f9406d60 	ldr	x0, [x11, #216]
   82a4c:	aa0003fb 	mov	x27, x0
   82a50:	f9407160 	ldr	x0, [x11, #224]
   82a54:	aa0003fc 	mov	x28, x0
   82a58:	f9407560 	ldr	x0, [x11, #232]
   82a5c:	aa0003fd 	mov	x29, x0
   82a60:	f9407960 	ldr	x0, [x11, #240]
   82a64:	aa0003fe 	mov	x30, x0
   82a68:	f9408160 	ldr	x0, [x11, #256]
   82a6c:	d5184020 	msr	elr_el1, x0
   82a70:	f9407d60 	ldr	x0, [x11, #248]
   82a74:	d5184100 	msr	sp_el0, x0
   82a78:	f9408560 	ldr	x0, [x11, #264]
   82a7c:	d5184000 	msr	spsr_el1, x0
   82a80:	f9400160 	ldr	x0, [x11]
   82a84:	aa0003e0 	mov	x0, x0
   82a88:	aa1e03fe 	mov	x30, x30
   82a8c:	d69f03e0 	eret

0000000000082a90 <return_to_kernel>:
   82a90:	58000d4b 	ldr	x11, 82c38 <return_to_kernel+0x1a8>
   82a94:	f940016b 	ldr	x11, [x11]
   82a98:	f9000160 	str	x0, [x11]
   82a9c:	f9000561 	str	x1, [x11, #8]
   82aa0:	f9000962 	str	x2, [x11, #16]
   82aa4:	f9000d63 	str	x3, [x11, #24]
   82aa8:	f9001164 	str	x4, [x11, #32]
   82aac:	f9001565 	str	x5, [x11, #40]
   82ab0:	f9001966 	str	x6, [x11, #48]
   82ab4:	f9001d67 	str	x7, [x11, #56]
   82ab8:	f9002168 	str	x8, [x11, #64]
   82abc:	f9002569 	str	x9, [x11, #72]
   82ac0:	f900296a 	str	x10, [x11, #80]
   82ac4:	f900316c 	str	x12, [x11, #96]
   82ac8:	f900356d 	str	x13, [x11, #104]
   82acc:	f900396e 	str	x14, [x11, #112]
   82ad0:	f9003d6f 	str	x15, [x11, #120]
   82ad4:	f9004170 	str	x16, [x11, #128]
   82ad8:	f9004571 	str	x17, [x11, #136]
   82adc:	f9004972 	str	x18, [x11, #144]
   82ae0:	f9004d73 	str	x19, [x11, #152]
   82ae4:	f9005174 	str	x20, [x11, #160]
   82ae8:	f9005575 	str	x21, [x11, #168]
   82aec:	f9005976 	str	x22, [x11, #176]
   82af0:	f9005d77 	str	x23, [x11, #184]
   82af4:	f9006178 	str	x24, [x11, #192]
   82af8:	f9006579 	str	x25, [x11, #200]
   82afc:	f900697a 	str	x26, [x11, #208]
   82b00:	f9006d7b 	str	x27, [x11, #216]
   82b04:	f900717c 	str	x28, [x11, #224]
   82b08:	f900757d 	str	x29, [x11, #232]
   82b0c:	f900797e 	str	x30, [x11, #240]
   82b10:	d5384100 	mrs	x0, sp_el0
   82b14:	f9007d60 	str	x0, [x11, #248]
   82b18:	d5384020 	mrs	x0, elr_el1
   82b1c:	f9008160 	str	x0, [x11, #256]
   82b20:	d5384000 	mrs	x0, spsr_el1
   82b24:	f9008560 	str	x0, [x11, #264]
   82b28:	f9400560 	ldr	x0, [x11, #8]
   82b2c:	aa0003e1 	mov	x1, x0
   82b30:	f9400960 	ldr	x0, [x11, #16]
   82b34:	aa0003e2 	mov	x2, x0
   82b38:	f9400d60 	ldr	x0, [x11, #24]
   82b3c:	aa0003e3 	mov	x3, x0
   82b40:	f9401160 	ldr	x0, [x11, #32]
   82b44:	aa0003e4 	mov	x4, x0
   82b48:	f9401560 	ldr	x0, [x11, #40]
   82b4c:	aa0003e5 	mov	x5, x0
   82b50:	f9401960 	ldr	x0, [x11, #48]
   82b54:	aa0003e6 	mov	x6, x0
   82b58:	f9401d60 	ldr	x0, [x11, #56]
   82b5c:	aa0003e7 	mov	x7, x0
   82b60:	5800068b 	ldr	x11, 82c30 <return_to_kernel+0x1a0>
   82b64:	f940016b 	ldr	x11, [x11]
   82b68:	f9402160 	ldr	x0, [x11, #64]
   82b6c:	aa0003e8 	mov	x8, x0
   82b70:	f9402560 	ldr	x0, [x11, #72]
   82b74:	aa0003e9 	mov	x9, x0
   82b78:	f9402960 	ldr	x0, [x11, #80]
   82b7c:	aa0003ea 	mov	x10, x0
   82b80:	f9403160 	ldr	x0, [x11, #96]
   82b84:	aa0003ec 	mov	x12, x0
   82b88:	f9403560 	ldr	x0, [x11, #104]
   82b8c:	aa0003ed 	mov	x13, x0
   82b90:	f9403960 	ldr	x0, [x11, #112]
   82b94:	aa0003ee 	mov	x14, x0
   82b98:	f9403d60 	ldr	x0, [x11, #120]
   82b9c:	aa0003ef 	mov	x15, x0
   82ba0:	f9404160 	ldr	x0, [x11, #128]
   82ba4:	aa0003f0 	mov	x16, x0
   82ba8:	f9404560 	ldr	x0, [x11, #136]
   82bac:	aa0003f1 	mov	x17, x0
   82bb0:	f9404960 	ldr	x0, [x11, #144]
   82bb4:	aa0003f2 	mov	x18, x0
   82bb8:	f9404d60 	ldr	x0, [x11, #152]
   82bbc:	aa0003f3 	mov	x19, x0
   82bc0:	f9405160 	ldr	x0, [x11, #160]
   82bc4:	aa0003f4 	mov	x20, x0
   82bc8:	f9405560 	ldr	x0, [x11, #168]
   82bcc:	aa0003f5 	mov	x21, x0
   82bd0:	f9405960 	ldr	x0, [x11, #176]
   82bd4:	aa0003f6 	mov	x22, x0
   82bd8:	f9405d60 	ldr	x0, [x11, #184]
   82bdc:	aa0003f7 	mov	x23, x0
   82be0:	f9406160 	ldr	x0, [x11, #192]
   82be4:	aa0003f8 	mov	x24, x0
   82be8:	f9406560 	ldr	x0, [x11, #200]
   82bec:	aa0003f9 	mov	x25, x0
   82bf0:	f9406960 	ldr	x0, [x11, #208]
   82bf4:	aa0003fa 	mov	x26, x0
   82bf8:	f9406d60 	ldr	x0, [x11, #216]
   82bfc:	aa0003fb 	mov	x27, x0
   82c00:	f9407160 	ldr	x0, [x11, #224]
   82c04:	aa0003fc 	mov	x28, x0
   82c08:	f9407560 	ldr	x0, [x11, #232]
   82c0c:	aa0003fd 	mov	x29, x0
   82c10:	f9407960 	ldr	x0, [x11, #240]
   82c14:	aa0003fe 	mov	x30, x0
   82c18:	f9407d60 	ldr	x0, [x11, #248]
   82c1c:	9100001f 	mov	sp, x0
   82c20:	f9400160 	ldr	x0, [x11]
   82c24:	aa0003e0 	mov	x0, x0
   82c28:	d65f03c0 	ret
   82c2c:	00000000 	udf	#0
   82c30:	00082f10 	.word	0x00082f10
   82c34:	00000000 	.word	0x00000000
   82c38:	00082f18 	.word	0x00082f18
   82c3c:	00000000 	.word	0x00000000
